

HI-TECH Software PIC LITE Macro Assembler V9.82 build 9453 
                                                                                               Mon Dec 19 11:41:51 2011

HI-TECH Software Omniscient Code Generator (Lite mode) build 9453
     1  0000                     opt subtitle "HI-TECH Software Omniscient Code Generator (Lite mode) build 9453"
     2                           
     3                           opt pagewidth 120
     4                           
     5                           	opt lm
     6                           
     7                           	processor	16F876
     8                           clrc	macro
     9                           	bcf	3,0
    10  0000                     	endm
    11                           clrz	macro
    12                           	bcf	3,2
    13  0000                     	endm
    14                           setc	macro
    15                           	bsf	3,0
    16  0000                     	endm
    17                           setz	macro
    18                           	bsf	3,2
    19  0000                     	endm
    20                           skipc	macro
    21                           	btfss	3,0
    22  0000                     	endm
    23                           skipz	macro
    24                           	btfss	3,2
    25  0000                     	endm
    26                           skipnc	macro
    27                           	btfsc	3,0
    28  0000                     	endm
    29                           skipnz	macro
    30                           	btfsc	3,2
    31  0000                     	endm
    32  0000                     indf	equ	0
    33  0000                     indf0	equ	0
    34  0002                     pc	equ	2
    35  0002                     pcl	equ	2
    36  0003                     status	equ	3
    37  0004                     fsr	equ	4
    38  0004                     fsr0	equ	4
    39  0001                     c	equ	1
    40  0000                     z	equ	0
    41  000A                     pclath	equ	10
    42                           # 11 "main.c"
    43                           	psect config,class=CONFIG,delta=2 ;#
    44                           # 11 "main.c"
    45  2007  FF7A               	dw 0xFFFB & 0xFF7F & 0xFFFE ;#
    46                           	FNCALL	_main,_init_pic
    47                           	FNCALL	_main,_init_dig_pot
    48                           	FNCALL	_main,_read_adc
    49                           	FNCALL	_main,___lwtoft
    50                           	FNCALL	_main,___ftmul
    51                           	FNCALL	_main,___fttol
    52                           	FNCALL	_main,_send_pot_val
    53                           	FNCALL	_main,___awtoft
    54                           	FNCALL	_main,_fabs
    55                           	FNCALL	_main,___lbtoft
    56                           	FNCALL	_main,___ftge
    57                           	FNCALL	_main,___ftadd
    58                           	FNCALL	_send_pot_val,_i2c_Restart
    59                           	FNCALL	_send_pot_val,_i2c_Open
    60                           	FNCALL	_send_pot_val,_i2c_PutString
    61                           	FNCALL	_send_pot_val,_i2c_Stop
    62                           	FNCALL	_init_dig_pot,_i2c_Restart
    63                           	FNCALL	_init_dig_pot,_i2c_Open
    64                           	FNCALL	_init_dig_pot,_i2c_PutString
    65                           	FNCALL	_init_dig_pot,_i2c_Stop
    66                           	FNCALL	_i2c_Open,_i2c_Restart
    67                           	FNCALL	_i2c_Open,_i2c_SendAddress
    68                           	FNCALL	_i2c_Open,_i2c_ReadAcknowledge
    69                           	FNCALL	_i2c_PutString,_i2c_PutByte
    70                           	FNCALL	_i2c_PutByte,_i2c_SendByte
    71                           	FNCALL	_i2c_PutByte,_i2c_ReadAcknowledge
    72                           	FNCALL	_i2c_SendAddress,_i2c_SendByte
    73                           	FNCALL	_init_pic,___ftmul
    74                           	FNCALL	_init_pic,___fttol
    75                           	FNCALL	_init_pic,___lwtoft
    76                           	FNCALL	_init_pic,_setup_adc
    77                           	FNCALL	_i2c_ReadAcknowledge,_i2c_WaitForSCL
    78                           	FNCALL	_i2c_SendByte,_i2c_WaitForSCL
    79                           	FNCALL	___lwtoft,___ftpack
    80                           	FNCALL	___awtoft,___ftpack
    81                           	FNCALL	___lbtoft,___ftpack
    82                           	FNCALL	___ftmul,___ftpack
    83                           	FNCALL	___ftadd,___ftpack
    84                           	FNCALL	_fabs,___ftge
    85                           	FNCALL	_fabs,___ftneg
    86                           	FNCALL	_read_adc,Fake
    87                           	FNCALL	_read_adc,_result_left
    88                           	FNCALL	_read_adc,_result_right
    89                           	FNROOT	_main
    90                           	FNCALL	intlevel1,_int_call
    91                           	global	intlevel1
    92                           	FNROOT	intlevel1
    93                           	global	_r_pot_adc
    94                           	global	_adc_throttle
    95                           	global	_counter_pwm
    96                           	global	_adc_new_pos
    97                           	global	_adc_old_pos
    98                           	global	_adc_pos_dif
    99                           	global	_man_auto
   100                           	global	_pot_plc
   101                           	global	_pot_ref_min_car
   102                           	global	_pot_servo_ctrl
   103                           	global	_result_adc
   104                           	global	_max_centralina_pot
   105                           	global	_pot_values
   106                           	global	_pot_car
   107                           	global	_min_pwm_duty
   108                           psect	nvBANK0,class=BANK0,space=1
   109                           global __pnvBANK0
   110  0068                     __pnvBANK0:
   111  0068                     _min_pwm_duty:
   112  0068                            ds      2
   113                           
   114                           	global	_pwm_period
   115  006A                     _pwm_period:
   116  006A                            ds      2
   117                           
   118                           	global	_duty_value
   119                           psect	nvCOMMON,class=COMMON,space=1
   120                           global __pnvCOMMON
   121  0075                     __pnvCOMMON:
   122  0075                     _duty_value:
   123  0075                            ds      2
   124                           
   125                           	global	_b_adc2timer
   126  0077                     _b_adc2timer:
   127  0077                            ds      1
   128                           
   129                           	global	_ADCON0
   130  001F                     _ADCON0	set	31
   131                           	global	_ADRESH
   132  001E                     _ADRESH	set	30
   133                           	global	_INTCON
   134  000B                     _INTCON	set	11
   135                           	global	_PIR1
   136  000C                     _PIR1	set	12
   137                           	global	_SSPCON
   138  0014                     _SSPCON	set	20
   139                           	global	_TMR0
   140  0001                     _TMR0	set	1
   141                           	global	_CARRY
   142  0018                     _CARRY	set	24
   143                           	global	_GIE
   144  005F                     _GIE	set	95
   145                           	global	_GO_DONE
   146  00FA                     _GO_DONE	set	250
   147                           	global	_INTE
   148  005C                     _INTE	set	92
   149                           	global	_INTF
   150  0059                     _INTF	set	89
   151                           	global	_RA2
   152  002A                     _RA2	set	42
   153                           	global	_RB1
   154  0031                     _RB1	set	49
   155                           	global	_RB4
   156  0034                     _RB4	set	52
   157                           	global	_RB5
   158  0035                     _RB5	set	53
   159                           	global	_RC3
   160  003B                     _RC3	set	59
   161                           	global	_RC4
   162  003C                     _RC4	set	60
   163                           	global	_T0IE
   164  005D                     _T0IE	set	93
   165                           	global	_T0IF
   166  005A                     _T0IF	set	90
   167                           	global	_ADCON1
   168  009F                     _ADCON1	set	159
   169                           	global	_ADRESL
   170  009E                     _ADRESL	set	158
   171                           	global	_OPTION_REG
   172  0081                     _OPTION_REG	set	129
   173                           	global	_PIE1
   174  008C                     _PIE1	set	140
   175                           	global	_TRISA
   176  0085                     _TRISA	set	133
   177                           	global	_TRISB
   178  0086                     _TRISB	set	134
   179                           	global	_TRISC
   180  0087                     _TRISC	set	135
   181                           	global	_INTEDG
   182  040E                     _INTEDG	set	1038
   183                           	global	_TRISC3
   184  043B                     _TRISC3	set	1083
   185                           	global	_TRISC4
   186  043C                     _TRISC4	set	1084
   187                           	global	_EEADR
   188  010D                     _EEADR	set	269
   189                           	global	_EEDATA
   190  010C                     _EEDATA	set	268
   191                           	global	_EECON1
   192  018C                     _EECON1	set	396
   193                           	global	_EECON2
   194  018D                     _EECON2	set	397
   195                           	global	_RD
   196  0C60                     _RD	set	3168
   197                           	global	_WR
   198  0C61                     _WR	set	3169
   199                           	global	_WREN
   200  0C62                     _WREN	set	3170
   201                           	global	_m_adc2timer
   202                           psect	nvBANK1,class=BANK1,space=1
   203                           global __pnvBANK1
   204  00A0                     __pnvBANK1:
   205  00A0                     _m_adc2timer:
   206  00A0                            ds      3
   207                           
   208                           	global	_t_osc
   209  00A3                     _t_osc:
   210  00A3                            ds      3
   211                           
   212                           	global	_max_pwm_duty
   213  00A6                     _max_pwm_duty:
   214  00A6                            ds      2
   215                           
   216                           	global	_t_osc_pres
   217                           psect	nvBANK0
   218  006C                     _t_osc_pres:
   219  006C                            ds      3
   220                           
   221                           	file	"C:/Users/dgameiro/AppData/Local/Temp\s3r8."
   222                           	line	#
   223                           psect cinit,class=CODE,delta=2
   224                           global start_initialization
   225  0DEB                     start_initialization:
   226                           
   227                           psect	bssCOMMON,class=COMMON,space=1
   228                           global __pbssCOMMON
   229  0078                     __pbssCOMMON:
   230  0078                     _max_centralina_pot:
   231  0078                            ds      1
   232                           
   233                           psect	bssBANK0,class=BANK0,space=1
   234                           global __pbssBANK0
   235  0058                     __pbssBANK0:
   236  0058                     _r_pot_adc:
   237  0058                            ds      3
   238                           
   239  005B                     _adc_throttle:
   240  005B                            ds      2
   241                           
   242  005D                     _counter_pwm:
   243  005D                            ds      2
   244                           
   245  005F                     _adc_new_pos:
   246  005F                            ds      1
   247                           
   248  0060                     _adc_old_pos:
   249  0060                            ds      1
   250                           
   251  0061                     _adc_pos_dif:
   252  0061                            ds      1
   253                           
   254  0062                     _man_auto:
   255  0062                            ds      1
   256                           
   257  0063                     _pot_plc:
   258  0063                            ds      1
   259                           
   260  0064                     _pot_ref_min_car:
   261  0064                            ds      1
   262                           
   263  0065                     _pot_servo_ctrl:
   264  0065                            ds      1
   265                           
   266  0066                     _result_adc:
   267  0066                            ds      1
   268                           
   269  0067                     _pot_car:
   270  0067                            ds      1
   271                           
   272                           psect	bssBANK1,class=BANK1,space=1
   273                           global __pbssBANK1
   274  00A8                     __pbssBANK1:
   275  00A8                     _pot_values:
   276  00A8                            ds      8
   277                           
   278                           psect clrtext,class=CODE,delta=2
   279                           global clear_ram
   280                           ;	Called with FSR containing the base address, and
   281                           ;	W with the last address+1
   282  0DA2                     clear_ram:
   283  0DA2  0064               	clrwdt			;clear the watchdog before getting into this loop
   284  0DA3                     clrloop:
   285  0DA3  0180               	clrf	indf		;clear RAM location pointed to by FSR
   286  0DA4  0A84               	incf	fsr,f		;increment pointer
   287  0DA5  0604               	xorwf	fsr,w		;XOR with final address
   288  0DA6  1903               	btfsc	status,2	;have we reached the end yet?
   289  0DA7  3400               	retlw	0		;all done for this memory range, return
   290  0DA8  0604               	xorwf	fsr,w		;XOR again to restore value
   291  0DA9  2DA3               	goto	clrloop		;do the next byte
   292                           
   293                           ; Clear objects allocated to COMMON
   294                           psect cinit,class=CODE,delta=2
   295  0DEB  01F8               	clrf	((__pbssCOMMON)+0)&07Fh
   296                           ; Clear objects allocated to BANK0
   297                           psect cinit,class=CODE,delta=2
   298  0DEC  1383               	bcf	status, 7	;select IRP bank0
   299  0DED  3058               	movlw	low(__pbssBANK0)
   300  0DEE  0084               	movwf	fsr
   301  0DEF  3068               	movlw	low((__pbssBANK0)+010h)
   302  0DF0  120A  158A  25A2   	fcall	clear_ram
              120A  158A         
   303                           ; Clear objects allocated to BANK1
   304                           psect cinit,class=CODE,delta=2
   305  0DF5  30A8               	movlw	low(__pbssBANK1)
   306  0DF6  0084               	movwf	fsr
   307  0DF7  30B0               	movlw	low((__pbssBANK1)+08h)
   308  0DF8  120A  158A  25A2   	fcall	clear_ram
              120A  158A         
   309                           psect cinit,class=CODE,delta=2
   310                           global end_of_initialization
   311                           
   312                           ;End of C runtime variable initialization code
   313                           
   314  0DFD                     end_of_initialization:
   315  0DFD  0183               clrf status
   316  0DFE  120A  118A  2A91   ljmp _main	;jump to C main() function
   317                           psect	cstackBANK1,class=BANK1,space=1
   318                           global __pcstackBANK1
   319  00B0                     __pcstackBANK1:
   320                           	global	___ftadd@sign
   321  00B0                     ___ftadd@sign:	; 1 bytes @ 0x0
   322  00B0                     	ds	1
   323                           	global	___ftadd@exp2
   324  00B1                     ___ftadd@exp2:	; 1 bytes @ 0x1
   325  00B1                     	ds	1
   326                           	global	___ftadd@exp1
   327  00B2                     ___ftadd@exp1:	; 1 bytes @ 0x2
   328  00B2                     	ds	1
   329                           	global	??_main
   330  00B3                     ??_main:	; 0 bytes @ 0x3
   331  00B3                     	ds	2
   332                           psect	cstackCOMMON,class=COMMON,space=1
   333                           global __pcstackCOMMON
   334  0070                     __pcstackCOMMON:
   335                           	global	?_i2c_Stop
   336  0070                     ?_i2c_Stop:	; 0 bytes @ 0x0
   337                           	global	?_i2c_Restart
   338  0070                     ?_i2c_Restart:	; 0 bytes @ 0x0
   339                           	global	?_setup_adc
   340  0070                     ?_setup_adc:	; 0 bytes @ 0x0
   341                           	global	?_init_pic
   342  0070                     ?_init_pic:	; 0 bytes @ 0x0
   343                           	global	?_init_dig_pot
   344  0070                     ?_init_dig_pot:	; 0 bytes @ 0x0
   345                           	global	?_int_call
   346  0070                     ?_int_call:	; 0 bytes @ 0x0
   347                           	global	??_int_call
   348  0070                     ??_int_call:	; 0 bytes @ 0x0
   349                           	global	?_i2c_WaitForSCL
   350  0070                     ?_i2c_WaitForSCL:	; 1 bytes @ 0x0
   351                           	global	?_i2c_SendByte
   352  0070                     ?_i2c_SendByte:	; 1 bytes @ 0x0
   353                           	global	?_i2c_ReadAcknowledge
   354  0070                     ?_i2c_ReadAcknowledge:	; 1 bytes @ 0x0
   355                           	global	?_i2c_PutByte
   356  0070                     ?_i2c_PutByte:	; 1 bytes @ 0x0
   357                           	global	?_main
   358  0070                     ?_main:	; 2 bytes @ 0x0
   359  0070                     	ds	5
   360                           	global	??_fabs
   361  0075                     ??_fabs:	; 0 bytes @ 0x5
   362                           	global	??_i2c_Stop
   363  0075                     ??_i2c_Stop:	; 0 bytes @ 0x5
   364                           	global	??_i2c_Restart
   365  0075                     ??_i2c_Restart:	; 0 bytes @ 0x5
   366                           	global	??_i2c_SendAddress
   367  0075                     ??_i2c_SendAddress:	; 0 bytes @ 0x5
   368                           	global	??_i2c_PutByte
   369  0075                     ??_i2c_PutByte:	; 0 bytes @ 0x5
   370                           	global	??_i2c_PutString
   371  0075                     ??_i2c_PutString:	; 0 bytes @ 0x5
   372                           	global	??___ftneg
   373  0075                     ??___ftneg:	; 0 bytes @ 0x5
   374                           psect	cstackBANK0,class=BANK0,space=1
   375                           global __pcstackBANK0
   376  0020                     __pcstackBANK0:
   377                           	global	??_i2c_WaitForSCL
   378  0020                     ??_i2c_WaitForSCL:	; 0 bytes @ 0x0
   379                           	global	??_setup_adc
   380  0020                     ??_setup_adc:	; 0 bytes @ 0x0
   381                           	global	?_result_right
   382  0020                     ?_result_right:	; 2 bytes @ 0x0
   383                           	global	?_result_left
   384  0020                     ?_result_left:	; 2 bytes @ 0x0
   385                           	global	?___ftpack
   386  0020                     ?___ftpack:	; 3 bytes @ 0x0
   387                           	global	?___ftneg
   388  0020                     ?___ftneg:	; 3 bytes @ 0x0
   389                           	global	___ftneg@f1
   390  0020                     ___ftneg@f1:	; 3 bytes @ 0x0
   391                           	global	___ftpack@arg
   392  0020                     ___ftpack@arg:	; 3 bytes @ 0x0
   393  0020                     	ds	1
   394                           	global	??_i2c_SendByte
   395  0021                     ??_i2c_SendByte:	; 0 bytes @ 0x1
   396                           	global	??_i2c_ReadAcknowledge
   397  0021                     ??_i2c_ReadAcknowledge:	; 0 bytes @ 0x1
   398  0021                     	ds	1
   399                           	global	??_result_right
   400  0022                     ??_result_right:	; 0 bytes @ 0x2
   401                           	global	??_result_left
   402  0022                     ??_result_left:	; 0 bytes @ 0x2
   403                           	global	i2c_SendByte@byte
   404  0022                     i2c_SendByte@byte:	; 1 bytes @ 0x2
   405                           	global	i2c_ReadAcknowledge@ack
   406  0022                     i2c_ReadAcknowledge@ack:	; 1 bytes @ 0x2
   407                           	global	setup_adc@tmp
   408  0022                     setup_adc@tmp:	; 2 bytes @ 0x2
   409  0022                     	ds	1
   410                           	global	i2c_SendByte@i
   411  0023                     i2c_SendByte@i:	; 1 bytes @ 0x3
   412                           	global	___ftpack@exp
   413  0023                     ___ftpack@exp:	; 1 bytes @ 0x3
   414  0023                     	ds	1
   415                           	global	?_i2c_SendAddress
   416  0024                     ?_i2c_SendAddress:	; 1 bytes @ 0x4
   417                           	global	i2c_SendAddress@rw
   418  0024                     i2c_SendAddress@rw:	; 1 bytes @ 0x4
   419                           	global	i2c_PutByte@data
   420  0024                     i2c_PutByte@data:	; 1 bytes @ 0x4
   421                           	global	setup_adc@cfg_mask1
   422  0024                     setup_adc@cfg_mask1:	; 1 bytes @ 0x4
   423                           	global	___ftpack@sign
   424  0024                     ___ftpack@sign:	; 1 bytes @ 0x4
   425                           	global	result_right@readval
   426  0024                     result_right@readval:	; 2 bytes @ 0x4
   427                           	global	result_left@readval
   428  0024                     result_left@readval:	; 2 bytes @ 0x4
   429  0024                     	ds	1
   430                           	global	??___ftpack
   431  0025                     ??___ftpack:	; 0 bytes @ 0x5
   432                           	global	?_i2c_PutString
   433  0025                     ?_i2c_PutString:	; 2 bytes @ 0x5
   434                           	global	i2c_SendAddress@address
   435  0025                     i2c_SendAddress@address:	; 1 bytes @ 0x5
   436                           	global	i2c_PutString@str
   437  0025                     i2c_PutString@str:	; 2 bytes @ 0x5
   438  0025                     	ds	1
   439                           	global	?_i2c_Open
   440  0026                     ?_i2c_Open:	; 1 bytes @ 0x6
   441                           	global	?_read_adc
   442  0026                     ?_read_adc:	; 2 bytes @ 0x6
   443                           	global	i2c_Open@mode
   444  0026                     i2c_Open@mode:	; 1 bytes @ 0x6
   445  0026                     	ds	1
   446                           	global	??_i2c_Open
   447  0027                     ??_i2c_Open:	; 0 bytes @ 0x7
   448                           	global	i2c_PutString@length
   449  0027                     i2c_PutString@length:	; 1 bytes @ 0x7
   450  0027                     	ds	1
   451                           	global	??_read_adc
   452  0028                     ??_read_adc:	; 0 bytes @ 0x8
   453                           	global	?___ftge
   454  0028                     ?___ftge:	; 1 bit 
   455                           	global	?___fttol
   456  0028                     ?___fttol:	; 4 bytes @ 0x8
   457                           	global	i2c_PutString@error
   458  0028                     i2c_PutString@error:	; 1 bytes @ 0x8
   459                           	global	i2c_Open@address
   460  0028                     i2c_Open@address:	; 1 bytes @ 0x8
   461                           	global	___fttol@f1
   462  0028                     ___fttol@f1:	; 3 bytes @ 0x8
   463                           	global	___ftge@ff1
   464  0028                     ___ftge@ff1:	; 3 bytes @ 0x8
   465  0028                     	ds	1
   466                           	global	?_send_pot_val
   467  0029                     ?_send_pot_val:	; 0 bytes @ 0x9
   468                           	global	??_init_dig_pot
   469  0029                     ??_init_dig_pot:	; 0 bytes @ 0x9
   470                           	global	send_pot_val@msg
   471  0029                     send_pot_val@msg:	; 1 bytes @ 0x9
   472  0029                     	ds	1
   473                           	global	read_adc@channel
   474  002A                     read_adc@channel:	; 1 bytes @ 0xA
   475                           	global	send_pot_val@len
   476  002A                     send_pot_val@len:	; 1 bytes @ 0xA
   477                           	global	init_dig_pot@msg
   478  002A                     init_dig_pot@msg:	; 14 bytes @ 0xA
   479  002A                     	ds	1
   480                           	global	??_send_pot_val
   481  002B                     ??_send_pot_val:	; 0 bytes @ 0xB
   482                           	global	read_adc@readval
   483  002B                     read_adc@readval:	; 2 bytes @ 0xB
   484                           	global	___ftge@ff2
   485  002B                     ___ftge@ff2:	; 3 bytes @ 0xB
   486  002B                     	ds	1
   487                           	global	??___fttol
   488  002C                     ??___fttol:	; 0 bytes @ 0xC
   489                           	global	send_pot_val@adress
   490  002C                     send_pot_val@adress:	; 1 bytes @ 0xC
   491  002C                     	ds	1
   492                           	global	read_adc@tmp
   493  002D                     read_adc@tmp:	; 1 bytes @ 0xD
   494  002D                     	ds	1
   495                           	global	??___ftge
   496  002E                     ??___ftge:	; 0 bytes @ 0xE
   497  002E                     	ds	2
   498                           	global	___fttol@sign1
   499  0030                     ___fttol@sign1:	; 1 bytes @ 0x10
   500  0030                     	ds	1
   501                           	global	___fttol@lval
   502  0031                     ___fttol@lval:	; 4 bytes @ 0x11
   503  0031                     	ds	3
   504                           	global	?___awtoft
   505  0034                     ?___awtoft:	; 3 bytes @ 0x14
   506                           	global	___awtoft@c
   507  0034                     ___awtoft@c:	; 2 bytes @ 0x14
   508  0034                     	ds	1
   509                           	global	___fttol@exp1
   510  0035                     ___fttol@exp1:	; 1 bytes @ 0x15
   511  0035                     	ds	1
   512                           	global	?___lbtoft
   513  0036                     ?___lbtoft:	; 3 bytes @ 0x16
   514                           	global	?___lwtoft
   515  0036                     ?___lwtoft:	; 3 bytes @ 0x16
   516                           	global	___lwtoft@c
   517  0036                     ___lwtoft@c:	; 2 bytes @ 0x16
   518  0036                     	ds	1
   519                           	global	??___awtoft
   520  0037                     ??___awtoft:	; 0 bytes @ 0x17
   521  0037                     	ds	1
   522                           	global	init_dig_pot@adress
   523  0038                     init_dig_pot@adress:	; 1 bytes @ 0x18
   524  0038                     	ds	1
   525                           	global	??___lbtoft
   526  0039                     ??___lbtoft:	; 0 bytes @ 0x19
   527                           	global	??___lwtoft
   528  0039                     ??___lwtoft:	; 0 bytes @ 0x19
   529                           	global	init_dig_pot@len
   530  0039                     init_dig_pot@len:	; 1 bytes @ 0x19
   531                           	global	___awtoft@sign
   532  0039                     ___awtoft@sign:	; 1 bytes @ 0x19
   533  0039                     	ds	1
   534                           	global	?_fabs
   535  003A                     ?_fabs:	; 3 bytes @ 0x1A
   536                           	global	fabs@d
   537  003A                     fabs@d:	; 3 bytes @ 0x1A
   538  003A                     	ds	3
   539                           	global	___lbtoft@c
   540  003D                     ___lbtoft@c:	; 1 bytes @ 0x1D
   541  003D                     	ds	1
   542                           	global	?___ftmul
   543  003E                     ?___ftmul:	; 3 bytes @ 0x1E
   544                           	global	___ftmul@f1
   545  003E                     ___ftmul@f1:	; 3 bytes @ 0x1E
   546  003E                     	ds	3
   547                           	global	___ftmul@f2
   548  0041                     ___ftmul@f2:	; 3 bytes @ 0x21
   549  0041                     	ds	3
   550                           	global	??___ftmul
   551  0044                     ??___ftmul:	; 0 bytes @ 0x24
   552  0044                     	ds	4
   553                           	global	___ftmul@exp
   554  0048                     ___ftmul@exp:	; 1 bytes @ 0x28
   555  0048                     	ds	1
   556                           	global	___ftmul@f3_as_product
   557  0049                     ___ftmul@f3_as_product:	; 3 bytes @ 0x29
   558  0049                     	ds	3
   559                           	global	___ftmul@cntr
   560  004C                     ___ftmul@cntr:	; 1 bytes @ 0x2C
   561  004C                     	ds	1
   562                           	global	___ftmul@sign
   563  004D                     ___ftmul@sign:	; 1 bytes @ 0x2D
   564  004D                     	ds	1
   565                           	global	??_init_pic
   566  004E                     ??_init_pic:	; 0 bytes @ 0x2E
   567                           	global	?___ftadd
   568  004E                     ?___ftadd:	; 3 bytes @ 0x2E
   569                           	global	___ftadd@f1
   570  004E                     ___ftadd@f1:	; 3 bytes @ 0x2E
   571  004E                     	ds	3
   572                           	global	___ftadd@f2
   573  0051                     ___ftadd@f2:	; 3 bytes @ 0x31
   574  0051                     	ds	3
   575                           	global	??___ftadd
   576  0054                     ??___ftadd:	; 0 bytes @ 0x34
   577  0054                     	ds	4
   578 ;;Data sizes: Strings 0, constant 0, data 0, bss 25, persistent 18 stack 0
   579 ;;Auto spaces:   Size  Autos    Used
   580 ;; COMMON          14      5       9
   581 ;; BANK0           80     56      79
   582 ;; BANK1           80      5      21
   583 ;; BANK3           96      0       0
   584 ;; BANK2           96      0       0
   585                           
   586 ;;
   587 ;; Pointer list with targets:
   588                           
   589 ;; ?___lbtoft	float  size(1) Largest target is 0
   590 ;;
   591 ;; ?___ftpack	float  size(1) Largest target is 3
   592 ;;		 -> t_osc_pres(BANK0[3]), 
   593 ;;
   594 ;; ?___ftneg	float  size(1) Largest target is 0
   595 ;;
   596 ;; ?___ftadd	float  size(1) Largest target is 0
   597 ;;
   598 ;; ?___awtoft	float  size(1) Largest target is 0
   599 ;;
   600 ;; ?_fabs	float  size(1) Largest target is 0
   601 ;;
   602 ;; ?___fttol	long  size(1) Largest target is 0
   603 ;;
   604 ;; ?___lwtoft	float  size(1) Largest target is 0
   605 ;;
   606 ;; ?___ftmul	float  size(1) Largest target is 0
   607 ;;
   608 ;; ?_read_adc	unsigned int  size(1) Largest target is 0
   609 ;;
   610 ;; ?_result_left	unsigned int  size(1) Largest target is 0
   611 ;;
   612 ;; ?_result_right	unsigned int  size(1) Largest target is 0
   613 ;;
   614 ;; ?_i2c_PutString	int  size(1) Largest target is 0
   615 ;;
   616 ;; send_pot_val@msg	PTR unsigned char  size(1) Largest target is 1
   617 ;;		 -> pot_car(BANK0[1]), 
   618 ;;
   619 ;; result_adc	PTR FTN()unsigned int  size(1) Largest target is 2
   620 ;;		 -> Absolute function(), result_left(), result_right(), 
   621 ;;
   622 ;; i2c_PutString@str	PTR const unsigned char  size(2) Largest target is 8192
   623 ;;		 -> pot_car(BANK0[1]), ROM(CODE[8192]), 
   624 ;;
   625                           
   626                           
   627 ;;
   628 ;; Critical Paths under _main in COMMON
   629 ;;
   630 ;;   None.
   631 ;;
   632 ;; Critical Paths under _int_call in COMMON
   633 ;;
   634 ;;   None.
   635 ;;
   636 ;; Critical Paths under _main in BANK0
   637 ;;
   638 ;;   _main->___ftadd
   639 ;;   _send_pot_val->_i2c_Open
   640 ;;   _send_pot_val->_i2c_PutString
   641 ;;   _init_dig_pot->_i2c_Open
   642 ;;   _init_dig_pot->_i2c_PutString
   643 ;;   _i2c_Open->_i2c_SendAddress
   644 ;;   _i2c_PutString->_i2c_PutByte
   645 ;;   _i2c_PutByte->_i2c_SendByte
   646 ;;   _i2c_SendAddress->_i2c_SendByte
   647 ;;   _init_pic->___ftmul
   648 ;;   _i2c_ReadAcknowledge->_i2c_WaitForSCL
   649 ;;   _i2c_SendByte->_i2c_WaitForSCL
   650 ;;   ___lwtoft->___fttol
   651 ;;   ___awtoft->___ftge
   652 ;;   ___lbtoft->___fttol
   653 ;;   ___ftmul->___lbtoft
   654 ;;   ___ftadd->___ftmul
   655 ;;   _fabs->___awtoft
   656 ;;   _read_adc->_result_left
   657 ;;   _read_adc->_result_right
   658 ;;   ___ftge->___ftpack
   659 ;;   ___fttol->___ftpack
   660 ;;
   661 ;; Critical Paths under _int_call in BANK0
   662 ;;
   663 ;;   None.
   664 ;;
   665 ;; Critical Paths under _main in BANK1
   666 ;;
   667 ;;   _main->___ftadd
   668 ;;
   669 ;; Critical Paths under _int_call in BANK1
   670 ;;
   671 ;;   None.
   672 ;;
   673 ;; Critical Paths under _main in BANK3
   674 ;;
   675 ;;   None.
   676 ;;
   677 ;; Critical Paths under _int_call in BANK3
   678 ;;
   679 ;;   None.
   680 ;;
   681 ;; Critical Paths under _main in BANK2
   682 ;;
   683 ;;   None.
   684 ;;
   685 ;; Critical Paths under _int_call in BANK2
   686 ;;
   687 ;;   None.
   688                           
   689 ;;
   690 ;;Main: autosize = 0, tempsize = 2, incstack = 0, save=0
   691 ;;
   692                           
   693 ;;
   694 ;;Call Graph Tables:
   695 ;;
   696 ;; ---------------------------------------------------------------------------------
   697 ;; (Depth) Function   	        Calls       Base Space   Used Autos Params    Refs
   698 ;; ---------------------------------------------------------------------------------
   699 ;; (0) _main                                                 2     2      0    8082
   700 ;;                                              3 BANK1      2     2      0
   701 ;;                           _init_pic
   702 ;;                       _init_dig_pot
   703 ;;                           _read_adc
   704 ;;                           ___lwtoft
   705 ;;                            ___ftmul
   706 ;;                            ___fttol
   707 ;;                       _send_pot_val
   708 ;;                           ___awtoft
   709 ;;                               _fabs
   710 ;;                           ___lbtoft
   711 ;;                             ___ftge
   712 ;;                            ___ftadd
   713 ;; ---------------------------------------------------------------------------------
   714 ;; (1) _send_pot_val                                         4     2      2     816
   715 ;;                                              9 BANK0      4     2      2
   716 ;;                        _i2c_Restart
   717 ;;                           _i2c_Open
   718 ;;                      _i2c_PutString
   719 ;;                           _i2c_Stop
   720 ;; ---------------------------------------------------------------------------------
   721 ;; (1) _init_dig_pot                                        17    17      0    1229
   722 ;;                                              9 BANK0     17    17      0
   723 ;;                        _i2c_Restart
   724 ;;                           _i2c_Open
   725 ;;                      _i2c_PutString
   726 ;;                           _i2c_Stop
   727 ;; ---------------------------------------------------------------------------------
   728 ;; (2) _i2c_Open                                             3     2      1     350
   729 ;;                                              6 BANK0      3     2      1
   730 ;;                        _i2c_Restart
   731 ;;                    _i2c_SendAddress
   732 ;;                _i2c_ReadAcknowledge
   733 ;; ---------------------------------------------------------------------------------
   734 ;; (2) _i2c_PutString                                        4     1      3     373
   735 ;;                                              5 BANK0      4     1      3
   736 ;;                        _i2c_PutByte
   737 ;; ---------------------------------------------------------------------------------
   738 ;; (3) _i2c_PutByte                                          1     1      0     257
   739 ;;                                              4 BANK0      1     1      0
   740 ;;                       _i2c_SendByte
   741 ;;                _i2c_ReadAcknowledge
   742 ;; ---------------------------------------------------------------------------------
   743 ;; (3) _i2c_SendAddress                                      2     1      1     254
   744 ;;                                              4 BANK0      2     1      1
   745 ;;                       _i2c_SendByte
   746 ;; ---------------------------------------------------------------------------------
   747 ;; (1) _init_pic                                             4     4      0    1652
   748 ;;                                             46 BANK0      4     4      0
   749 ;;                            ___ftmul
   750 ;;                            ___fttol
   751 ;;                           ___lwtoft
   752 ;;                          _setup_adc
   753 ;; ---------------------------------------------------------------------------------
   754 ;; (4) _i2c_ReadAcknowledge                                  2     2      0      34
   755 ;;                                              1 BANK0      2     2      0
   756 ;;                     _i2c_WaitForSCL
   757 ;; ---------------------------------------------------------------------------------
   758 ;; (4) _i2c_SendByte                                         3     3      0     192
   759 ;;                                              1 BANK0      3     3      0
   760 ;;                     _i2c_WaitForSCL
   761 ;; ---------------------------------------------------------------------------------
   762 ;; (1) ___lwtoft                                             4     1      3     343
   763 ;;                                             22 BANK0      4     1      3
   764 ;;                           ___ftpack
   765 ;;                            ___fttol (ARG)
   766 ;; ---------------------------------------------------------------------------------
   767 ;; (1) ___awtoft                                             6     3      3     445
   768 ;;                                             20 BANK0      6     3      3
   769 ;;                           ___ftpack
   770 ;;                             ___ftge (ARG)
   771 ;; ---------------------------------------------------------------------------------
   772 ;; (1) ___lbtoft                                             8     5      3     343
   773 ;;                                             22 BANK0      8     5      3
   774 ;;                           ___ftpack
   775 ;;                             ___ftge (ARG)
   776 ;;                            ___fttol (ARG)
   777 ;; ---------------------------------------------------------------------------------
   778 ;; (1) ___ftmul                                             16    10      6     800
   779 ;;                                             30 BANK0     16    10      6
   780 ;;                           ___ftpack
   781 ;;                           ___lwtoft (ARG)
   782 ;;                            ___fttol (ARG)
   783 ;;                           ___lbtoft (ARG)
   784 ;; ---------------------------------------------------------------------------------
   785 ;; (1) ___ftadd                                             13     7      6    1537
   786 ;;                                             46 BANK0     10     4      6
   787 ;;                                              0 BANK1      3     3      0
   788 ;;                           ___ftpack
   789 ;;                            ___ftmul (ARG)
   790 ;;                           ___lbtoft (ARG)
   791 ;;                            ___fttol (ARG)
   792 ;; ---------------------------------------------------------------------------------
   793 ;; (1) _fabs                                                 3     0      3     294
   794 ;;                                             26 BANK0      3     0      3
   795 ;;                             ___ftge
   796 ;;                            ___ftneg
   797 ;;                           ___awtoft (ARG)
   798 ;; ---------------------------------------------------------------------------------
   799 ;; (1) _read_adc                                             8     6      2     235
   800 ;;                                              6 BANK0      8     6      2
   801 ;;                   Absolute function
   802 ;;                        _result_left
   803 ;;                       _result_right
   804 ;; ---------------------------------------------------------------------------------
   805 ;; (5) _i2c_WaitForSCL                                       1     1      0       0
   806 ;;                                              0 BANK0      1     1      0
   807 ;; ---------------------------------------------------------------------------------
   808 ;; (3) _i2c_Restart                                          0     0      0       0
   809 ;; ---------------------------------------------------------------------------------
   810 ;; (2) _i2c_Stop                                             0     0      0       0
   811 ;; ---------------------------------------------------------------------------------
   812 ;; (2) Absolute function(Fake)                               0     0      0       0
   813 ;; ---------------------------------------------------------------------------------
   814 ;; (1) ___ftge                                              12     6      6     136
   815 ;;                                              8 BANK0     12     6      6
   816 ;;                           ___ftpack (ARG)
   817 ;; ---------------------------------------------------------------------------------
   818 ;; (2) ___ftneg                                              3     0      3      65
   819 ;;                                              0 BANK0      3     0      3
   820 ;; ---------------------------------------------------------------------------------
   821 ;; (1) ___fttol                                             14    10      4     252
   822 ;;                                              8 BANK0     14    10      4
   823 ;;                           ___ftpack (ARG)
   824 ;; ---------------------------------------------------------------------------------
   825 ;; (2) ___ftpack                                             8     3      5     312
   826 ;;                                              0 BANK0      8     3      5
   827 ;; ---------------------------------------------------------------------------------
   828 ;; (2) _setup_adc                                            5     5      0     257
   829 ;;                                              0 BANK0      5     5      0
   830 ;; ---------------------------------------------------------------------------------
   831 ;; (2) _result_left                                          6     4      2      68
   832 ;;                                              0 BANK0      6     4      2
   833 ;; ---------------------------------------------------------------------------------
   834 ;; (2) _result_right                                         6     4      2      68
   835 ;;                                              0 BANK0      6     4      2
   836 ;; ---------------------------------------------------------------------------------
   837 ;; Estimated maximum stack depth 5
   838 ;; ---------------------------------------------------------------------------------
   839 ;; (Depth) Function   	        Calls       Base Space   Used Autos Params    Refs
   840 ;; ---------------------------------------------------------------------------------
   841 ;; (6) _int_call                                             5     5      0       0
   842 ;;                                              0 COMMON     5     5      0
   843 ;; ---------------------------------------------------------------------------------
   844 ;; Estimated maximum stack depth 6
   845 ;; ---------------------------------------------------------------------------------
   846                           
   847 ;; Call Graph Graphs:
   848                           
   849 ;; _main (ROOT)
   850 ;;   _init_pic
   851 ;;     ___ftmul
   852 ;;       ___ftpack
   853 ;;       ___lwtoft (ARG)
   854 ;;         ___ftpack
   855 ;;         ___fttol (ARG)
   856 ;;           ___ftpack (ARG)
   857 ;;       ___fttol (ARG)
   858 ;;         ___ftpack (ARG)
   859 ;;       ___lbtoft (ARG)
   860 ;;         ___ftpack
   861 ;;         ___ftge (ARG)
   862 ;;           ___ftpack (ARG)
   863 ;;         ___fttol (ARG)
   864 ;;           ___ftpack (ARG)
   865 ;;     ___fttol
   866 ;;       ___ftpack (ARG)
   867 ;;     ___lwtoft
   868 ;;       ___ftpack
   869 ;;       ___fttol (ARG)
   870 ;;         ___ftpack (ARG)
   871 ;;     _setup_adc
   872 ;;   _init_dig_pot
   873 ;;     _i2c_Restart
   874 ;;     _i2c_Open
   875 ;;       _i2c_Restart
   876 ;;       _i2c_SendAddress
   877 ;;         _i2c_SendByte
   878 ;;           _i2c_WaitForSCL
   879 ;;       _i2c_ReadAcknowledge
   880 ;;         _i2c_WaitForSCL
   881 ;;     _i2c_PutString
   882 ;;       _i2c_PutByte
   883 ;;         _i2c_SendByte
   884 ;;           _i2c_WaitForSCL
   885 ;;         _i2c_ReadAcknowledge
   886 ;;           _i2c_WaitForSCL
   887 ;;     _i2c_Stop
   888 ;;   _read_adc
   889 ;;     Absolute function(Fake)
   890 ;;     _result_left
   891 ;;     _result_right
   892 ;;   ___lwtoft
   893 ;;     ___ftpack
   894 ;;     ___fttol (ARG)
   895 ;;       ___ftpack (ARG)
   896 ;;   ___ftmul
   897 ;;     ___ftpack
   898 ;;     ___lwtoft (ARG)
   899 ;;       ___ftpack
   900 ;;       ___fttol (ARG)
   901 ;;         ___ftpack (ARG)
   902 ;;     ___fttol (ARG)
   903 ;;       ___ftpack (ARG)
   904 ;;     ___lbtoft (ARG)
   905 ;;       ___ftpack
   906 ;;       ___ftge (ARG)
   907 ;;         ___ftpack (ARG)
   908 ;;       ___fttol (ARG)
   909 ;;         ___ftpack (ARG)
   910 ;;   ___fttol
   911 ;;     ___ftpack (ARG)
   912 ;;   _send_pot_val
   913 ;;     _i2c_Restart
   914 ;;     _i2c_Open
   915 ;;       _i2c_Restart
   916 ;;       _i2c_SendAddress
   917 ;;         _i2c_SendByte
   918 ;;           _i2c_WaitForSCL
   919 ;;       _i2c_ReadAcknowledge
   920 ;;         _i2c_WaitForSCL
   921 ;;     _i2c_PutString
   922 ;;       _i2c_PutByte
   923 ;;         _i2c_SendByte
   924 ;;           _i2c_WaitForSCL
   925 ;;         _i2c_ReadAcknowledge
   926 ;;           _i2c_WaitForSCL
   927 ;;     _i2c_Stop
   928 ;;   ___awtoft
   929 ;;     ___ftpack
   930 ;;     ___ftge (ARG)
   931 ;;       ___ftpack (ARG)
   932 ;;   _fabs
   933 ;;     ___ftge
   934 ;;       ___ftpack (ARG)
   935 ;;     ___ftneg
   936 ;;     ___awtoft (ARG)
   937 ;;       ___ftpack
   938 ;;       ___ftge (ARG)
   939 ;;         ___ftpack (ARG)
   940 ;;   ___lbtoft
   941 ;;     ___ftpack
   942 ;;     ___ftge (ARG)
   943 ;;       ___ftpack (ARG)
   944 ;;     ___fttol (ARG)
   945 ;;       ___ftpack (ARG)
   946 ;;   ___ftge
   947 ;;     ___ftpack (ARG)
   948 ;;   ___ftadd
   949 ;;     ___ftpack
   950 ;;     ___ftmul (ARG)
   951 ;;       ___ftpack
   952 ;;       ___lwtoft (ARG)
   953 ;;         ___ftpack
   954 ;;         ___fttol (ARG)
   955 ;;           ___ftpack (ARG)
   956 ;;       ___fttol (ARG)
   957 ;;         ___ftpack (ARG)
   958 ;;       ___lbtoft (ARG)
   959 ;;         ___ftpack
   960 ;;         ___ftge (ARG)
   961 ;;           ___ftpack (ARG)
   962 ;;         ___fttol (ARG)
   963 ;;           ___ftpack (ARG)
   964 ;;     ___lbtoft (ARG)
   965 ;;       ___ftpack
   966 ;;       ___ftge (ARG)
   967 ;;         ___ftpack (ARG)
   968 ;;       ___fttol (ARG)
   969 ;;         ___ftpack (ARG)
   970 ;;     ___fttol (ARG)
   971 ;;       ___ftpack (ARG)
   972 ;;
   973 ;; _int_call (ROOT)
   974 ;;
   975                           
   976 ;; Address spaces:
   977                           
   978 ;;Name               Size   Autos  Total    Cost      Usage
   979 ;;BITCOMMON            E      0       0       0        0.0%
   980 ;;EEDATA             100      0       0       0        0.0%
   981 ;;NULL                 0      0       0       0        0.0%
   982 ;;CODE                 0      0       0       0        0.0%
   983 ;;COMMON               E      5       9       1       64.3%
   984 ;;BITSFR0              0      0       0       1        0.0%
   985 ;;SFR0                 0      0       0       1        0.0%
   986 ;;BITSFR1              0      0       0       2        0.0%
   987 ;;SFR1                 0      0       0       2        0.0%
   988 ;;STACK                0      0       5       2        0.0%
   989 ;;ABS                  0      0      6D       3        0.0%
   990 ;;BITBANK0            50      0       0       4        0.0%
   991 ;;BITSFR3              0      0       0       4        0.0%
   992 ;;SFR3                 0      0       0       4        0.0%
   993 ;;BANK0               50     38      4F       5       98.8%
   994 ;;BITSFR2              0      0       0       5        0.0%
   995 ;;SFR2                 0      0       0       5        0.0%
   996 ;;BITBANK1            50      0       0       6        0.0%
   997 ;;BANK1               50      5      15       7       26.3%
   998 ;;BITBANK3            60      0       0       8        0.0%
   999 ;;BANK3               60      0       0       9        0.0%
  1000 ;;BITBANK2            60      0       0      10        0.0%
  1001 ;;BANK2               60      0       0      11        0.0%
  1002 ;;DATA                 0      0      72      12        0.0%
  1003                           
  1004                           	global	_main
  1005                           psect	maintext,global,class=CODE,delta=2
  1006                           global __pmaintext
  1007  0291                     __pmaintext:
  1008                           
  1009 ;; *************** function _main *****************
  1010 ;; Defined at:
  1011 ;;		line 51 in file "main.c"
  1012 ;; Parameters:    Size  Location     Type
  1013 ;;		None
  1014 ;; Auto vars:     Size  Location     Type
  1015 ;;		None
  1016 ;; Return value:  Size  Location     Type
  1017 ;;                  2  2504[COMMON] int 
  1018 ;; Registers used:
  1019 ;;		wreg, fsr0l, fsr0h, status,2, status,0, btemp+1, pclath, cstack
  1020 ;; Tracked objects:
  1021 ;;		On entry : 17F/0
  1022 ;;		On exit  : 0/0
  1023 ;;		Unchanged: 0/0
  1024 ;; Data sizes:     COMMON   BANK0   BANK1   BANK3   BANK2
  1025 ;;      Params:         0       0       0       0       0
  1026 ;;      Locals:         0       0       0       0       0
  1027 ;;      Temps:          0       0       2       0       0
  1028 ;;      Totals:         0       0       2       0       0
  1029 ;;Total ram usage:        2 bytes
  1030 ;; Hardware stack levels required when called:    6
  1031 ;; This function calls:
  1032 ;;		_init_pic
  1033 ;;		_init_dig_pot
  1034 ;;		_read_adc
  1035 ;;		___lwtoft
  1036 ;;		___ftmul
  1037 ;;		___fttol
  1038 ;;		_send_pot_val
  1039 ;;		___awtoft
  1040 ;;		_fabs
  1041 ;;		___lbtoft
  1042 ;;		___ftge
  1043 ;;		___ftadd
  1044 ;; This function is called by:
  1045 ;;		Startup code after reset
  1046 ;; This function uses a non-reentrant model
  1047 ;;
  1048                           psect	maintext
  1049                           	file	"main.c"
  1050                           	line	51
  1051                           	global	__size_of_main
  1052  0168                     	__size_of_main	equ	__end_of_main-_main
  1053                           	
  1054  0291                     _main:	
  1055                           	opt	stack 2
  1056                           ; Regs used in _main: [wreg-fsr0h+status,2+status,0+btemp+1+pclath+cstack]
  1057                           	line	53
  1058                           	
  1059  0291                     l6332:	
  1060                           ;main.c: 53: init_pic();
  1061  0291  120A  118A  23F9   	fcall	_init_pic
              120A  118A         
  1062                           	line	55
  1063                           	
  1064  0296                     l6334:	
  1065                           ;main.c: 55: init_dig_pot(0b01011110 & 0b11111110);
  1066  0296  305E               	movlw	(05Eh)
  1067  0297  120A  118A  206D   	fcall	_init_dig_pot
              120A  118A         
  1068  029C  2A9D               	goto	l6336
  1069                           	line	62
  1070                           ;main.c: 62: while(1)
  1071                           	
  1072  029D                     l2505:	
  1073                           	line	64
  1074                           	
  1075  029D                     l6336:	
  1076                           ;main.c: 63: {
  1077                           ;main.c: 64: adc_throttle = read_adc(0);
  1078  029D  3000               	movlw	(0)
  1079  029E  120A  118A  20C3   	fcall	_read_adc
              120A  118A         
  1080  02A3  1283               	bcf	status, 5	;RP0=0, select bank0
  1081  02A4  1303               	bcf	status, 6	;RP1=0, select bank0
  1082  02A5  0827               	movf	(1+(?_read_adc)),w
  1083  02A6  01DC               	clrf	(_adc_throttle+1)
  1084  02A7  07DC               	addwf	(_adc_throttle+1)
  1085  02A8  0826               	movf	(0+(?_read_adc)),w
  1086  02A9  01DB               	clrf	(_adc_throttle)
  1087  02AA  07DB               	addwf	(_adc_throttle)
  1088                           
  1089                           	line	66
  1090                           	
  1091  02AB                     l6338:	
  1092                           ;main.c: 66: if(man_auto)
  1093  02AB  0862               	movf	(_man_auto),w
  1094  02AC  1D03               	skipz
  1095  02AD  2AAF               	goto	u4840
  1096  02AE  2AC0               	goto	l6342
  1097  02AF                     u4840:
  1098                           	line	68
  1099                           	
  1100  02AF                     l6340:	
  1101                           ;main.c: 67: {
  1102                           ;main.c: 68: adc_new_pos = read_adc(1);
  1103  02AF  3001               	movlw	(01h)
  1104  02B0  120A  118A  20C3   	fcall	_read_adc
              120A  118A         
  1105  02B5  1283               	bcf	status, 5	;RP0=0, select bank0
  1106  02B6  1303               	bcf	status, 6	;RP1=0, select bank0
  1107  02B7  0826               	movf	(0+(?_read_adc)),w
  1108  02B8  1683               	bsf	status, 5	;RP0=1, select bank1
  1109  02B9  1303               	bcf	status, 6	;RP1=0, select bank1
  1110  02BA  00B3               	movwf	(??_main+0)^080h+0
  1111  02BB  0833               	movf	(??_main+0)^080h+0,w
  1112  02BC  1283               	bcf	status, 5	;RP0=0, select bank0
  1113  02BD  1303               	bcf	status, 6	;RP1=0, select bank0
  1114  02BE  00DF               	movwf	(_adc_new_pos)
  1115                           	line	69
  1116                           ;main.c: 69: }else{
  1117  02BF  2AD1               	goto	l6344
  1118                           	
  1119  02C0                     l2506:	
  1120                           	line	70
  1121                           	
  1122  02C0                     l6342:	
  1123                           ;main.c: 70: adc_new_pos = read_adc(3);
  1124  02C0  3003               	movlw	(03h)
  1125  02C1  120A  118A  20C3   	fcall	_read_adc
              120A  118A         
  1126  02C6  1283               	bcf	status, 5	;RP0=0, select bank0
  1127  02C7  1303               	bcf	status, 6	;RP1=0, select bank0
  1128  02C8  0826               	movf	(0+(?_read_adc)),w
  1129  02C9  1683               	bsf	status, 5	;RP0=1, select bank1
  1130  02CA  1303               	bcf	status, 6	;RP1=0, select bank1
  1131  02CB  00B3               	movwf	(??_main+0)^080h+0
  1132  02CC  0833               	movf	(??_main+0)^080h+0,w
  1133  02CD  1283               	bcf	status, 5	;RP0=0, select bank0
  1134  02CE  1303               	bcf	status, 6	;RP1=0, select bank0
  1135  02CF  00DF               	movwf	(_adc_new_pos)
  1136  02D0  2AD1               	goto	l6344
  1137                           	line	71
  1138                           	
  1139  02D1                     l2507:	
  1140                           	line	74
  1141                           	
  1142  02D1                     l6344:	
  1143                           ;main.c: 71: }
  1144                           ;main.c: 74: pot_plc = r_pot_adc *adc_throttle;
  1145  02D1  085C               	movf	(_adc_throttle+1),w
  1146  02D2  01B7               	clrf	(?___lwtoft+1)
  1147  02D3  07B7               	addwf	(?___lwtoft+1)
  1148  02D4  085B               	movf	(_adc_throttle),w
  1149  02D5  01B6               	clrf	(?___lwtoft)
  1150  02D6  07B6               	addwf	(?___lwtoft)
  1151                           
  1152  02D7  120A  158A  2630   	fcall	___lwtoft
              120A  118A         
  1153  02DC  1283               	bcf	status, 5	;RP0=0, select bank0
  1154  02DD  1303               	bcf	status, 6	;RP1=0, select bank0
  1155  02DE  0836               	movf	(0+(?___lwtoft)),w
  1156  02DF  00C1               	movwf	0+(?___ftmul)+03h
  1157  02E0  0837               	movf	(1+(?___lwtoft)),w
  1158  02E1  00C2               	movwf	1+(?___ftmul)+03h
  1159  02E2  0838               	movf	(2+(?___lwtoft)),w
  1160  02E3  00C3               	movwf	2+(?___ftmul)+03h
  1161  02E4  0858               	movf	(_r_pot_adc),w
  1162  02E5  00BE               	movwf	(?___ftmul)
  1163  02E6  0859               	movf	(_r_pot_adc+1),w
  1164  02E7  00BF               	movwf	(?___ftmul+1)
  1165  02E8  085A               	movf	(_r_pot_adc+2),w
  1166  02E9  00C0               	movwf	(?___ftmul+2)
  1167  02EA  120A  118A  2525   	fcall	___ftmul
              120A  118A         
  1168  02EF  1283               	bcf	status, 5	;RP0=0, select bank0
  1169  02F0  1303               	bcf	status, 6	;RP1=0, select bank0
  1170  02F1  083E               	movf	(0+(?___ftmul)),w
  1171  02F2  00A8               	movwf	(?___fttol)
  1172  02F3  083F               	movf	(1+(?___ftmul)),w
  1173  02F4  00A9               	movwf	(?___fttol+1)
  1174  02F5  0840               	movf	(2+(?___ftmul)),w
  1175  02F6  00AA               	movwf	(?___fttol+2)
  1176  02F7  120A  118A  2613   	fcall	___fttol
              120A  118A         
  1177  02FC  1283               	bcf	status, 5	;RP0=0, select bank0
  1178  02FD  1303               	bcf	status, 6	;RP1=0, select bank0
  1179  02FE  0828               	movf	0+(((0+(?___fttol)))),w
  1180  02FF  1683               	bsf	status, 5	;RP0=1, select bank1
  1181  0300  1303               	bcf	status, 6	;RP1=0, select bank1
  1182  0301  00B3               	movwf	(??_main+0)^080h+0
  1183  0302  0833               	movf	(??_main+0)^080h+0,w
  1184  0303  1283               	bcf	status, 5	;RP0=0, select bank0
  1185  0304  1303               	bcf	status, 6	;RP1=0, select bank0
  1186  0305  00E3               	movwf	(_pot_plc)
  1187                           	line	75
  1188                           	
  1189  0306                     l6346:	
  1190                           ;main.c: 75: if(pot_plc > 128)
  1191  0306  3081               	movlw	(081h)
  1192  0307  0263               	subwf	(_pot_plc),w
  1193  0308  1C03               	skipc
  1194  0309  2B0B               	goto	u4851
  1195  030A  2B0C               	goto	u4850
  1196  030B                     u4851:
  1197  030B  2B14               	goto	l2508
  1198  030C                     u4850:
  1199                           	line	76
  1200                           	
  1201  030C                     l6348:	
  1202                           ;main.c: 76: pot_plc = 128;
  1203  030C  3080               	movlw	(080h)
  1204  030D  1683               	bsf	status, 5	;RP0=1, select bank1
  1205  030E  1303               	bcf	status, 6	;RP1=0, select bank1
  1206  030F  00B3               	movwf	(??_main+0)^080h+0
  1207  0310  0833               	movf	(??_main+0)^080h+0,w
  1208  0311  1283               	bcf	status, 5	;RP0=0, select bank0
  1209  0312  1303               	bcf	status, 6	;RP1=0, select bank0
  1210  0313  00E3               	movwf	(_pot_plc)
  1211                           	
  1212  0314                     l2508:	
  1213                           	line	78
  1214                           ;main.c: 78: pot_car = pot_plc;
  1215  0314  0863               	movf	(_pot_plc),w
  1216  0315  1683               	bsf	status, 5	;RP0=1, select bank1
  1217  0316  1303               	bcf	status, 6	;RP1=0, select bank1
  1218  0317  00B3               	movwf	(??_main+0)^080h+0
  1219  0318  0833               	movf	(??_main+0)^080h+0,w
  1220  0319  1283               	bcf	status, 5	;RP0=0, select bank0
  1221  031A  1303               	bcf	status, 6	;RP1=0, select bank0
  1222  031B  00E7               	movwf	(_pot_car)
  1223                           	line	79
  1224                           ;main.c: 79: pot_servo_ctrl = pot_plc;
  1225  031C  0863               	movf	(_pot_plc),w
  1226  031D  1683               	bsf	status, 5	;RP0=1, select bank1
  1227  031E  1303               	bcf	status, 6	;RP1=0, select bank1
  1228  031F  00B3               	movwf	(??_main+0)^080h+0
  1229  0320  0833               	movf	(??_main+0)^080h+0,w
  1230  0321  1283               	bcf	status, 5	;RP0=0, select bank0
  1231  0322  1303               	bcf	status, 6	;RP1=0, select bank0
  1232  0323  00E5               	movwf	(_pot_servo_ctrl)
  1233                           	line	81
  1234                           ;main.c: 81: pot_values[1] = pot_plc;
  1235  0324  0863               	movf	(_pot_plc),w
  1236  0325  1683               	bsf	status, 5	;RP0=1, select bank1
  1237  0326  1303               	bcf	status, 6	;RP1=0, select bank1
  1238  0327  00B3               	movwf	(??_main+0)^080h+0
  1239  0328  0833               	movf	(??_main+0)^080h+0,w
  1240  0329  00A9               	movwf	0+(_pot_values)^080h+01h
  1241                           	line	82
  1242                           ;main.c: 82: pot_values[3] = pot_servo_ctrl;
  1243  032A  1283               	bcf	status, 5	;RP0=0, select bank0
  1244  032B  1303               	bcf	status, 6	;RP1=0, select bank0
  1245  032C  0865               	movf	(_pot_servo_ctrl),w
  1246  032D  1683               	bsf	status, 5	;RP0=1, select bank1
  1247  032E  1303               	bcf	status, 6	;RP1=0, select bank1
  1248  032F  00B3               	movwf	(??_main+0)^080h+0
  1249  0330  0833               	movf	(??_main+0)^080h+0,w
  1250  0331  00AB               	movwf	0+(_pot_values)^080h+03h
  1251                           	line	83
  1252                           ;main.c: 83: pot_values[5] = pot_car;
  1253  0332  1283               	bcf	status, 5	;RP0=0, select bank0
  1254  0333  1303               	bcf	status, 6	;RP1=0, select bank0
  1255  0334  0867               	movf	(_pot_car),w
  1256  0335  1683               	bsf	status, 5	;RP0=1, select bank1
  1257  0336  1303               	bcf	status, 6	;RP1=0, select bank1
  1258  0337  00B3               	movwf	(??_main+0)^080h+0
  1259  0338  0833               	movf	(??_main+0)^080h+0,w
  1260  0339  00AD               	movwf	0+(_pot_values)^080h+05h
  1261                           	line	85
  1262                           	
  1263  033A                     l6350:	
  1264                           ;main.c: 85: send_pot_val(0b01011110 & 0b11111110, &pot_car, 6);
  1265  033A  3067               	movlw	(_pot_car)&0ffh
  1266  033B  00B3               	movwf	(??_main+0)^080h+0
  1267  033C  0833               	movf	(??_main+0)^080h+0,w
  1268  033D  1283               	bcf	status, 5	;RP0=0, select bank0
  1269  033E  1303               	bcf	status, 6	;RP1=0, select bank0
  1270  033F  00A9               	movwf	(?_send_pot_val)
  1271  0340  3006               	movlw	(06h)
  1272  0341  1683               	bsf	status, 5	;RP0=1, select bank1
  1273  0342  1303               	bcf	status, 6	;RP1=0, select bank1
  1274  0343  00B4               	movwf	(??_main+1)^080h+0
  1275  0344  0834               	movf	(??_main+1)^080h+0,w
  1276  0345  1283               	bcf	status, 5	;RP0=0, select bank0
  1277  0346  1303               	bcf	status, 6	;RP1=0, select bank0
  1278  0347  00AA               	movwf	0+(?_send_pot_val)+01h
  1279  0348  305E               	movlw	(05Eh)
  1280  0349  120A  158A  26D3   	fcall	_send_pot_val
              120A  118A         
  1281                           	line	87
  1282                           	
  1283  034E                     l6352:	
  1284                           ;main.c: 87: if( fabs(adc_new_pos - adc_old_pos) < adc_pos_dif)
  1285  034E  1283               	bcf	status, 5	;RP0=0, select bank0
  1286  034F  1303               	bcf	status, 6	;RP1=0, select bank0
  1287  0350  0860               	movf	(_adc_old_pos),w
  1288  0351  1683               	bsf	status, 5	;RP0=1, select bank1
  1289  0352  1303               	bcf	status, 6	;RP1=0, select bank1
  1290  0353  00B3               	movwf	(??_main+0)^080h+0
  1291  0354  01B4               	clrf	(??_main+0)^080h+0+1
  1292  0355  09B3               	comf	(??_main+0)^080h+0,f
  1293  0356  09B4               	comf	(??_main+0)^080h+1,f
  1294  0357  0AB3               	incf	(??_main+0)^080h+0,f
  1295  0358  1903               	skipnz
  1296  0359  0AB4               	incf	(??_main+0)^080h+1,f
  1297  035A  1283               	bcf	status, 5	;RP0=0, select bank0
  1298  035B  1303               	bcf	status, 6	;RP1=0, select bank0
  1299  035C  085F               	movf	(_adc_new_pos),w
  1300  035D  1683               	bsf	status, 5	;RP0=1, select bank1
  1301  035E  1303               	bcf	status, 6	;RP1=0, select bank1
  1302  035F  0733               	addwf	0+(??_main+0)^080h+0,w
  1303  0360  1283               	bcf	status, 5	;RP0=0, select bank0
  1304  0361  1303               	bcf	status, 6	;RP1=0, select bank0
  1305  0362  00B4               	movwf	(?___awtoft)
  1306  0363  1683               	bsf	status, 5	;RP0=1, select bank1
  1307  0364  1303               	bcf	status, 6	;RP1=0, select bank1
  1308  0365  0834               	movf	1+(??_main+0)^080h+0,w
  1309  0366  1803               	skipnc
  1310  0367  0A34               	incf	1+(??_main+0)^080h+0,w
  1311  0368  1283               	bcf	status, 5	;RP0=0, select bank0
  1312  0369  1303               	bcf	status, 6	;RP1=0, select bank0
  1313  036A  00B5               	movwf	((?___awtoft))+1
  1314  036B  120A  158A  2720   	fcall	___awtoft
              120A  118A         
  1315  0370  1283               	bcf	status, 5	;RP0=0, select bank0
  1316  0371  1303               	bcf	status, 6	;RP1=0, select bank0
  1317  0372  0834               	movf	(0+(?___awtoft)),w
  1318  0373  00BA               	movwf	(?_fabs)
  1319  0374  0835               	movf	(1+(?___awtoft)),w
  1320  0375  00BB               	movwf	(?_fabs+1)
  1321  0376  0836               	movf	(2+(?___awtoft)),w
  1322  0377  00BC               	movwf	(?_fabs+2)
  1323  0378  120A  158A  274C   	fcall	_fabs
              120A  118A         
  1324  037D  1283               	bcf	status, 5	;RP0=0, select bank0
  1325  037E  1303               	bcf	status, 6	;RP1=0, select bank0
  1326  037F  083A               	movf	(0+(?_fabs)),w
  1327  0380  00A8               	movwf	(?___ftge)
  1328  0381  083B               	movf	(1+(?_fabs)),w
  1329  0382  00A9               	movwf	(?___ftge+1)
  1330  0383  083C               	movf	(2+(?_fabs)),w
  1331  0384  00AA               	movwf	(?___ftge+2)
  1332  0385  0861               	movf	(_adc_pos_dif),w
  1333  0386  120A  158A  266A   	fcall	___lbtoft
              120A  118A         
  1334  038B  1283               	bcf	status, 5	;RP0=0, select bank0
  1335  038C  1303               	bcf	status, 6	;RP1=0, select bank0
  1336  038D  0836               	movf	(0+(?___lbtoft)),w
  1337  038E  00AB               	movwf	0+(?___ftge)+03h
  1338  038F  0837               	movf	(1+(?___lbtoft)),w
  1339  0390  00AC               	movwf	1+(?___ftge)+03h
  1340  0391  0838               	movf	(2+(?___lbtoft)),w
  1341  0392  00AD               	movwf	2+(?___ftge)+03h
  1342  0393  120A  118A  2736   	fcall	___ftge
              120A  118A         
  1343  0398  1803               	btfsc	status,0
  1344  0399  2B9B               	goto	u4861
  1345  039A  2B9C               	goto	u4860
  1346  039B                     u4861:
  1347  039B  2A9D               	goto	l6336
  1348  039C                     u4860:
  1349                           	line	89
  1350                           	
  1351  039C                     l6354:	
  1352                           ;main.c: 88: {
  1353                           ;main.c: 89: duty_value = m_adc2timer * adc_new_pos + b_adc2timer;
  1354  039C  1283               	bcf	status, 5	;RP0=0, select bank0
  1355  039D  1303               	bcf	status, 6	;RP1=0, select bank0
  1356  039E  085F               	movf	(_adc_new_pos),w
  1357  039F  120A  158A  266A   	fcall	___lbtoft
              120A  118A         
  1358  03A4  1283               	bcf	status, 5	;RP0=0, select bank0
  1359  03A5  1303               	bcf	status, 6	;RP1=0, select bank0
  1360  03A6  0836               	movf	(0+(?___lbtoft)),w
  1361  03A7  00C1               	movwf	0+(?___ftmul)+03h
  1362  03A8  0837               	movf	(1+(?___lbtoft)),w
  1363  03A9  00C2               	movwf	1+(?___ftmul)+03h
  1364  03AA  0838               	movf	(2+(?___lbtoft)),w
  1365  03AB  00C3               	movwf	2+(?___ftmul)+03h
  1366  03AC  1683               	bsf	status, 5	;RP0=1, select bank1
  1367  03AD  1303               	bcf	status, 6	;RP1=0, select bank1
  1368  03AE  0820               	movf	(_m_adc2timer)^080h,w
  1369  03AF  1283               	bcf	status, 5	;RP0=0, select bank0
  1370  03B0  1303               	bcf	status, 6	;RP1=0, select bank0
  1371  03B1  00BE               	movwf	(?___ftmul)
  1372  03B2  1683               	bsf	status, 5	;RP0=1, select bank1
  1373  03B3  1303               	bcf	status, 6	;RP1=0, select bank1
  1374  03B4  0821               	movf	(_m_adc2timer+1)^080h,w
  1375  03B5  1283               	bcf	status, 5	;RP0=0, select bank0
  1376  03B6  1303               	bcf	status, 6	;RP1=0, select bank0
  1377  03B7  00BF               	movwf	(?___ftmul+1)
  1378  03B8  1683               	bsf	status, 5	;RP0=1, select bank1
  1379  03B9  1303               	bcf	status, 6	;RP1=0, select bank1
  1380  03BA  0822               	movf	(_m_adc2timer+2)^080h,w
  1381  03BB  1283               	bcf	status, 5	;RP0=0, select bank0
  1382  03BC  1303               	bcf	status, 6	;RP1=0, select bank0
  1383  03BD  00C0               	movwf	(?___ftmul+2)
  1384  03BE  120A  118A  2525   	fcall	___ftmul
              120A  118A         
  1385  03C3  1283               	bcf	status, 5	;RP0=0, select bank0
  1386  03C4  1303               	bcf	status, 6	;RP1=0, select bank0
  1387  03C5  083E               	movf	(0+(?___ftmul)),w
  1388  03C6  00D1               	movwf	0+(?___ftadd)+03h
  1389  03C7  083F               	movf	(1+(?___ftmul)),w
  1390  03C8  00D2               	movwf	1+(?___ftadd)+03h
  1391  03C9  0840               	movf	(2+(?___ftmul)),w
  1392  03CA  00D3               	movwf	2+(?___ftadd)+03h
  1393  03CB  0877               	movf	(_b_adc2timer),w
  1394  03CC  120A  158A  266A   	fcall	___lbtoft
              120A  118A         
  1395  03D1  1283               	bcf	status, 5	;RP0=0, select bank0
  1396  03D2  1303               	bcf	status, 6	;RP1=0, select bank0
  1397  03D3  0836               	movf	(0+(?___lbtoft)),w
  1398  03D4  00CE               	movwf	(?___ftadd)
  1399  03D5  0837               	movf	(1+(?___lbtoft)),w
  1400  03D6  00CF               	movwf	(?___ftadd+1)
  1401  03D7  0838               	movf	(2+(?___lbtoft)),w
  1402  03D8  00D0               	movwf	(?___ftadd+2)
  1403  03D9  120A  118A  210C   	fcall	___ftadd
              120A  118A         
  1404  03DE  1283               	bcf	status, 5	;RP0=0, select bank0
  1405  03DF  1303               	bcf	status, 6	;RP1=0, select bank0
  1406  03E0  084E               	movf	(0+(?___ftadd)),w
  1407  03E1  00A8               	movwf	(?___fttol)
  1408  03E2  084F               	movf	(1+(?___ftadd)),w
  1409  03E3  00A9               	movwf	(?___fttol+1)
  1410  03E4  0850               	movf	(2+(?___ftadd)),w
  1411  03E5  00AA               	movwf	(?___fttol+2)
  1412  03E6  120A  118A  2613   	fcall	___fttol
              120A  118A         
  1413  03EB  1283               	bcf	status, 5	;RP0=0, select bank0
  1414  03EC  1303               	bcf	status, 6	;RP1=0, select bank0
  1415  03ED  0829               	movf	1+(((0+(?___fttol)))),w
  1416  03EE  01F6               	clrf	(_duty_value+1)
  1417  03EF  07F6               	addwf	(_duty_value+1)
  1418  03F0  0828               	movf	0+(((0+(?___fttol)))),w
  1419  03F1  01F5               	clrf	(_duty_value)
  1420  03F2  07F5               	addwf	(_duty_value)
  1421                           
  1422  03F3  2A9D               	goto	l6336
  1423                           	line	90
  1424                           	
  1425  03F4                     l2509:	
  1426  03F4  2A9D               	goto	l6336
  1427                           	line	92
  1428                           	
  1429  03F5                     l2510:	
  1430                           	line	62
  1431  03F5  2A9D               	goto	l6336
  1432                           	
  1433  03F6                     l2511:	
  1434                           	line	95
  1435                           ;main.c: 90: }
  1436                           ;main.c: 92: };
  1437                           ;main.c: 94: return 0;
  1438                           ;	Return value of _main is never used
  1439                           	
  1440  03F6                     l2512:	
  1441                           	global	start
  1442  03F6  120A  118A  2812   	ljmp	start
  1443                           	opt stack 0
  1444                           GLOBAL	__end_of_main
  1445  03F9                     	__end_of_main:
  1446 ;; =============== function _main ends ============
  1447                           
  1448                           	signat	_main,90
  1449                           	global	_send_pot_val
  1450                           psect	text977,local,class=CODE,delta=2
  1451                           global __ptext977
  1452  0ED3                     __ptext977:
  1453                           
  1454 ;; *************** function _send_pot_val *****************
  1455 ;; Defined at:
  1456 ;;		line 100 in file "main.c"
  1457 ;; Parameters:    Size  Location     Type
  1458 ;;  adress          1    wreg     unsigned char 
  1459 ;;  msg             1    9[BANK0 ] PTR unsigned char 
  1460 ;;		 -> pot_car(1), 
  1461 ;;  len             1   10[BANK0 ] unsigned char 
  1462 ;; Auto vars:     Size  Location     Type
  1463 ;;  adress          1   12[BANK0 ] unsigned char 
  1464 ;; Return value:  Size  Location     Type
  1465 ;;		None               void
  1466 ;; Registers used:
  1467 ;;		wreg, fsr0l, fsr0h, status,2, status,0, btemp+1, pclath, cstack
  1468 ;; Tracked objects:
  1469 ;;		On entry : 0/0
  1470 ;;		On exit  : 0/0
  1471 ;;		Unchanged: 0/0
  1472 ;; Data sizes:     COMMON   BANK0   BANK1   BANK3   BANK2
  1473 ;;      Params:         0       2       0       0       0
  1474 ;;      Locals:         0       1       0       0       0
  1475 ;;      Temps:          0       1       0       0       0
  1476 ;;      Totals:         0       4       0       0       0
  1477 ;;Total ram usage:        4 bytes
  1478 ;; Hardware stack levels used:    1
  1479 ;; Hardware stack levels required when called:    5
  1480 ;; This function calls:
  1481 ;;		_i2c_Restart
  1482 ;;		_i2c_Open
  1483 ;;		_i2c_PutString
  1484 ;;		_i2c_Stop
  1485 ;; This function is called by:
  1486 ;;		_main
  1487 ;; This function uses a non-reentrant model
  1488 ;;
  1489                           psect	text977
  1490                           	file	"main.c"
  1491                           	line	100
  1492                           	global	__size_of_send_pot_val
  1493  0026                     	__size_of_send_pot_val	equ	__end_of_send_pot_val-_send_pot_val
  1494                           	
  1495  0ED3                     _send_pot_val:	
  1496                           	opt	stack 2
  1497                           ; Regs used in _send_pot_val: [wreg-fsr0h+status,2+status,0+btemp+1+pclath+cstack]
  1498                           ;send_pot_val@adress stored from wreg
  1499  0ED3  1283               	bcf	status, 5	;RP0=0, select bank0
  1500  0ED4  1303               	bcf	status, 6	;RP1=0, select bank0
  1501  0ED5  00AC               	movwf	(send_pot_val@adress)
  1502                           	line	101
  1503                           	
  1504  0ED6                     l6324:	
  1505                           ;main.c: 101: i2c_Restart();
  1506  0ED6  120A  158A  25C7   	fcall	_i2c_Restart
              120A  158A         
  1507                           	line	103
  1508                           	
  1509  0EDB                     l6326:	
  1510                           ;main.c: 103: i2c_Open((adress), 0x00);
  1511  0EDB  1283               	bcf	status, 5	;RP0=0, select bank0
  1512  0EDC  1303               	bcf	status, 6	;RP1=0, select bank0
  1513  0EDD  01A6               	clrf	(?_i2c_Open)
  1514  0EDE  082C               	movf	(send_pot_val@adress),w
  1515  0EDF  120A  158A  26AF   	fcall	_i2c_Open
              120A  158A         
  1516                           	line	105
  1517                           	
  1518  0EE4                     l6328:	
  1519                           ;main.c: 105: i2c_PutString(msg, len);
  1520  0EE4  1283               	bcf	status, 5	;RP0=0, select bank0
  1521  0EE5  1303               	bcf	status, 6	;RP1=0, select bank0
  1522  0EE6  0829               	movf	(send_pot_val@msg),w
  1523  0EE7  00A5               	movwf	(?_i2c_PutString)
  1524  0EE8  3000               	movlw	(0x0/2)
  1525  0EE9  00A6               	movwf	(?_i2c_PutString+1)
  1526  0EEA  082A               	movf	(send_pot_val@len),w
  1527  0EEB  00AB               	movwf	(??_send_pot_val+0)+0
  1528  0EEC  082B               	movf	(??_send_pot_val+0)+0,w
  1529  0EED  00A7               	movwf	0+(?_i2c_PutString)+02h
  1530  0EEE  120A  158A  277B   	fcall	_i2c_PutString
              120A  158A         
  1531                           	line	107
  1532                           	
  1533  0EF3                     l6330:	
  1534                           ;main.c: 107: i2c_Stop();
  1535  0EF3  120A  158A  25D7   	fcall	_i2c_Stop
              120A  158A         
  1536                           	line	108
  1537                           	
  1538  0EF8                     l2515:	
  1539  0EF8  0008               	return
  1540                           	opt stack 0
  1541                           GLOBAL	__end_of_send_pot_val
  1542  0EF9                     	__end_of_send_pot_val:
  1543 ;; =============== function _send_pot_val ends ============
  1544                           
  1545                           	signat	_send_pot_val,12408
  1546                           	global	_init_dig_pot
  1547                           psect	text978,local,class=CODE,delta=2
  1548                           global __ptext978
  1549  006D                     __ptext978:
  1550                           
  1551 ;; *************** function _init_dig_pot *****************
  1552 ;; Defined at:
  1553 ;;		line 78 in file "init.c"
  1554 ;; Parameters:    Size  Location     Type
  1555 ;;  adress          1    wreg     unsigned char 
  1556 ;; Auto vars:     Size  Location     Type
  1557 ;;  adress          1   24[BANK0 ] unsigned char 
  1558 ;;  msg            14   10[BANK0 ] unsigned char [14]
  1559 ;;  len             1   25[BANK0 ] unsigned char 
  1560 ;; Return value:  Size  Location     Type
  1561 ;;		None               void
  1562 ;; Registers used:
  1563 ;;		wreg, fsr0l, fsr0h, status,2, status,0, btemp+1, pclath, cstack
  1564 ;; Tracked objects:
  1565 ;;		On entry : 0/0
  1566 ;;		On exit  : 0/0
  1567 ;;		Unchanged: 0/0
  1568 ;; Data sizes:     COMMON   BANK0   BANK1   BANK3   BANK2
  1569 ;;      Params:         0       0       0       0       0
  1570 ;;      Locals:         0      16       0       0       0
  1571 ;;      Temps:          0       1       0       0       0
  1572 ;;      Totals:         0      17       0       0       0
  1573 ;;Total ram usage:       17 bytes
  1574 ;; Hardware stack levels used:    1
  1575 ;; Hardware stack levels required when called:    5
  1576 ;; This function calls:
  1577 ;;		_i2c_Restart
  1578 ;;		_i2c_Open
  1579 ;;		_i2c_PutString
  1580 ;;		_i2c_Stop
  1581 ;; This function is called by:
  1582 ;;		_main
  1583 ;; This function uses a non-reentrant model
  1584 ;;
  1585                           psect	text978
  1586                           	file	"init.c"
  1587                           	line	78
  1588                           	global	__size_of_init_dig_pot
  1589  0056                     	__size_of_init_dig_pot	equ	__end_of_init_dig_pot-_init_dig_pot
  1590                           	
  1591  006D                     _init_dig_pot:	
  1592                           	opt	stack 2
  1593                           ; Regs used in _init_dig_pot: [wreg-fsr0h+status,2+status,0+btemp+1+pclath+cstack]
  1594                           ;init_dig_pot@adress stored from wreg
  1595                           	line	82
  1596  006D  1283               	bcf	status, 5	;RP0=0, select bank0
  1597  006E  1303               	bcf	status, 6	;RP1=0, select bank0
  1598  006F  00B8               	movwf	(init_dig_pot@adress)
  1599                           	
  1600  0070                     l6288:	
  1601                           ;init.c: 79: unsigned char len;
  1602                           ;init.c: 80: unsigned char msg[14];
  1603                           ;init.c: 82: SSPCON &=0xF0; SSPCON|=(0B1011 & 0xf);
  1604  0070  30F0               	movlw	(0F0h)
  1605  0071  00A9               	movwf	(??_init_dig_pot+0)+0
  1606  0072  0829               	movf	(??_init_dig_pot+0)+0,w
  1607  0073  0594               	andwf	(20),f	;volatile
  1608  0074  300B               	movlw	(0Bh)
  1609  0075  00A9               	movwf	(??_init_dig_pot+0)+0
  1610  0076  0829               	movf	(??_init_dig_pot+0)+0,w
  1611  0077  0494               	iorwf	(20),f	;volatile
  1612                           	line	85
  1613                           	
  1614  0078                     l6290:	
  1615                           ;init.c: 85: i2c_Restart();
  1616  0078  120A  158A  25C7   	fcall	_i2c_Restart
              120A  118A         
  1617                           	line	87
  1618                           	
  1619  007D                     l6292:	
  1620                           ;init.c: 87: i2c_Open((adress), 0x00);
  1621  007D  1283               	bcf	status, 5	;RP0=0, select bank0
  1622  007E  1303               	bcf	status, 6	;RP1=0, select bank0
  1623  007F  01A6               	clrf	(?_i2c_Open)
  1624  0080  0838               	movf	(init_dig_pot@adress),w
  1625  0081  120A  158A  26AF   	fcall	_i2c_Open
              120A  118A         
  1626                           	line	90
  1627                           	
  1628  0086                     l6294:	
  1629                           ;init.c: 90: msg[0]= 0x41;
  1630  0086  3041               	movlw	(041h)
  1631  0087  1283               	bcf	status, 5	;RP0=0, select bank0
  1632  0088  1303               	bcf	status, 6	;RP1=0, select bank0
  1633  0089  00A9               	movwf	(??_init_dig_pot+0)+0
  1634  008A  0829               	movf	(??_init_dig_pot+0)+0,w
  1635  008B  00AA               	movwf	(init_dig_pot@msg)
  1636                           	line	91
  1637                           	
  1638  008C                     l6296:	
  1639                           ;init.c: 91: msg[1]= 0x8f;
  1640  008C  308F               	movlw	(08Fh)
  1641  008D  00A9               	movwf	(??_init_dig_pot+0)+0
  1642  008E  0829               	movf	(??_init_dig_pot+0)+0,w
  1643  008F  00AB               	movwf	0+(init_dig_pot@msg)+01h
  1644                           	line	94
  1645                           	
  1646  0090                     l6298:	
  1647                           ;init.c: 94: msg[2]= 0xa1;
  1648  0090  30A1               	movlw	(0A1h)
  1649  0091  00A9               	movwf	(??_init_dig_pot+0)+0
  1650  0092  0829               	movf	(??_init_dig_pot+0)+0,w
  1651  0093  00AC               	movwf	0+(init_dig_pot@msg)+02h
  1652                           	line	95
  1653                           	
  1654  0094                     l6300:	
  1655                           ;init.c: 95: msg[3]= 0xff;
  1656  0094  30FF               	movlw	(0FFh)
  1657  0095  00A9               	movwf	(??_init_dig_pot+0)+0
  1658  0096  0829               	movf	(??_init_dig_pot+0)+0,w
  1659  0097  00AD               	movwf	0+(init_dig_pot@msg)+03h
  1660                           	line	98
  1661                           	
  1662  0098                     l6302:	
  1663                           ;init.c: 98: msg[4]= 0x00;
  1664  0098  01AE               	clrf	0+(init_dig_pot@msg)+04h
  1665                           	line	99
  1666                           	
  1667  0099                     l6304:	
  1668                           ;init.c: 99: msg[5]= 0x0;
  1669  0099  01AF               	clrf	0+(init_dig_pot@msg)+05h
  1670                           	line	102
  1671                           	
  1672  009A                     l6306:	
  1673                           ;init.c: 102: msg[6]= 0x30;
  1674  009A  3030               	movlw	(030h)
  1675  009B  00A9               	movwf	(??_init_dig_pot+0)+0
  1676  009C  0829               	movf	(??_init_dig_pot+0)+0,w
  1677  009D  00B0               	movwf	0+(init_dig_pot@msg)+06h
  1678                           	line	103
  1679                           	
  1680  009E                     l6308:	
  1681                           ;init.c: 103: msg[7]= pot_ref_min_car;
  1682  009E  0864               	movf	(_pot_ref_min_car),w
  1683  009F  00A9               	movwf	(??_init_dig_pot+0)+0
  1684  00A0  0829               	movf	(??_init_dig_pot+0)+0,w
  1685  00A1  00B1               	movwf	0+(init_dig_pot@msg)+07h
  1686                           	line	106
  1687                           	
  1688  00A2                     l6310:	
  1689                           ;init.c: 106: msg[8]= 0x60;
  1690  00A2  3060               	movlw	(060h)
  1691  00A3  00A9               	movwf	(??_init_dig_pot+0)+0
  1692  00A4  0829               	movf	(??_init_dig_pot+0)+0,w
  1693  00A5  00B2               	movwf	0+(init_dig_pot@msg)+08h
  1694                           	line	107
  1695                           	
  1696  00A6                     l6312:	
  1697                           ;init.c: 107: msg[9]= 0x0;
  1698  00A6  01B3               	clrf	0+(init_dig_pot@msg)+09h
  1699                           	line	110
  1700                           	
  1701  00A7                     l6314:	
  1702                           ;init.c: 110: msg[10]= 0x70;
  1703  00A7  3070               	movlw	(070h)
  1704  00A8  00A9               	movwf	(??_init_dig_pot+0)+0
  1705  00A9  0829               	movf	(??_init_dig_pot+0)+0,w
  1706  00AA  00B4               	movwf	0+(init_dig_pot@msg)+0Ah
  1707                           	line	111
  1708                           	
  1709  00AB                     l6316:	
  1710                           ;init.c: 111: msg[11]= 0x0;
  1711  00AB  01B5               	clrf	0+(init_dig_pot@msg)+0Bh
  1712                           	line	114
  1713                           	
  1714  00AC                     l6318:	
  1715                           ;init.c: 114: len = 12;
  1716  00AC  300C               	movlw	(0Ch)
  1717  00AD  00A9               	movwf	(??_init_dig_pot+0)+0
  1718  00AE  0829               	movf	(??_init_dig_pot+0)+0,w
  1719  00AF  00B9               	movwf	(init_dig_pot@len)
  1720                           	line	115
  1721                           	
  1722  00B0                     l6320:	
  1723                           ;init.c: 115: i2c_PutString(msg[0], len);
  1724  00B0  082A               	movf	(init_dig_pot@msg),w
  1725  00B1  00A5               	movwf	(?_i2c_PutString)
  1726  00B2  3080               	movlw	80h
  1727  00B3  00A6               	movwf	(?_i2c_PutString+1)
  1728  00B4  0839               	movf	(init_dig_pot@len),w
  1729  00B5  00A9               	movwf	(??_init_dig_pot+0)+0
  1730  00B6  0829               	movf	(??_init_dig_pot+0)+0,w
  1731  00B7  00A7               	movwf	0+(?_i2c_PutString)+02h
  1732  00B8  120A  158A  277B   	fcall	_i2c_PutString
              120A  118A         
  1733                           	line	117
  1734                           	
  1735  00BD                     l6322:	
  1736                           ;init.c: 117: i2c_Stop();
  1737  00BD  120A  158A  25D7   	fcall	_i2c_Stop
              120A  118A         
  1738                           	line	119
  1739                           	
  1740  00C2                     l1866:	
  1741  00C2  0008               	return
  1742                           	opt stack 0
  1743                           GLOBAL	__end_of_init_dig_pot
  1744  00C3                     	__end_of_init_dig_pot:
  1745 ;; =============== function _init_dig_pot ends ============
  1746                           
  1747                           	signat	_init_dig_pot,4216
  1748                           	global	_i2c_Open
  1749                           psect	text979,local,class=CODE,delta=2
  1750                           global __ptext979
  1751  0EAF                     __ptext979:
  1752                           
  1753 ;; *************** function _i2c_Open *****************
  1754 ;; Defined at:
  1755 ;;		line 249 in file "../mylibs/i2c/i2c.c"
  1756 ;; Parameters:    Size  Location     Type
  1757 ;;  address         1    wreg     unsigned char 
  1758 ;;  mode            1    6[BANK0 ] unsigned char 
  1759 ;; Auto vars:     Size  Location     Type
  1760 ;;  address         1    8[BANK0 ] unsigned char 
  1761 ;; Return value:  Size  Location     Type
  1762 ;;                  1    wreg      unsigned char 
  1763 ;; Registers used:
  1764 ;;		wreg, status,2, status,0, pclath, cstack
  1765 ;; Tracked objects:
  1766 ;;		On entry : 0/0
  1767 ;;		On exit  : 0/0
  1768 ;;		Unchanged: 0/0
  1769 ;; Data sizes:     COMMON   BANK0   BANK1   BANK3   BANK2
  1770 ;;      Params:         0       1       0       0       0
  1771 ;;      Locals:         0       1       0       0       0
  1772 ;;      Temps:          0       1       0       0       0
  1773 ;;      Totals:         0       3       0       0       0
  1774 ;;Total ram usage:        3 bytes
  1775 ;; Hardware stack levels used:    1
  1776 ;; Hardware stack levels required when called:    4
  1777 ;; This function calls:
  1778 ;;		_i2c_Restart
  1779 ;;		_i2c_SendAddress
  1780 ;;		_i2c_ReadAcknowledge
  1781 ;; This function is called by:
  1782 ;;		_init_dig_pot
  1783 ;;		_send_pot_val
  1784 ;;		_i2c_read
  1785 ;; This function uses a non-reentrant model
  1786 ;;
  1787                           psect	text979
  1788                           	file	"../mylibs/i2c/i2c.c"
  1789                           	line	249
  1790                           	global	__size_of_i2c_Open
  1791  0024                     	__size_of_i2c_Open	equ	__end_of_i2c_Open-_i2c_Open
  1792                           	
  1793  0EAF                     _i2c_Open:	
  1794                           	opt	stack 2
  1795                           ; Regs used in _i2c_Open: [wreg+status,2+status,0+pclath+cstack]
  1796                           ;i2c_Open@address stored from wreg
  1797  0EAF  1283               	bcf	status, 5	;RP0=0, select bank0
  1798  0EB0  1303               	bcf	status, 6	;RP1=0, select bank0
  1799  0EB1  00A8               	movwf	(i2c_Open@address)
  1800                           	line	250
  1801                           	
  1802  0EB2                     l6274:	
  1803                           ;i2c.c: 250: i2c_Restart();
  1804  0EB2  120A  158A  25C7   	fcall	_i2c_Restart
              120A  158A         
  1805                           	line	251
  1806                           	
  1807  0EB7                     l6276:	
  1808                           ;i2c.c: 251: i2c_SendAddress(address, mode);
  1809  0EB7  1283               	bcf	status, 5	;RP0=0, select bank0
  1810  0EB8  1303               	bcf	status, 6	;RP1=0, select bank0
  1811  0EB9  0826               	movf	(i2c_Open@mode),w
  1812  0EBA  00A7               	movwf	(??_i2c_Open+0)+0
  1813  0EBB  0827               	movf	(??_i2c_Open+0)+0,w
  1814  0EBC  00A4               	movwf	(?_i2c_SendAddress)
  1815  0EBD  0828               	movf	(i2c_Open@address),w
  1816  0EBE  120A  158A  25B8   	fcall	_i2c_SendAddress
              120A  158A         
  1817                           	line	252
  1818                           	
  1819  0EC3                     l6278:	
  1820                           ;i2c.c: 252: if(i2c_ReadAcknowledge())
  1821  0EC3  120A  158A  268B   	fcall	_i2c_ReadAcknowledge
              120A  158A         
  1822  0EC8  3A00               	xorlw	0
  1823  0EC9  1903               	skipnz
  1824  0ECA  2ECC               	goto	u4831
  1825  0ECB  2ECD               	goto	u4830
  1826  0ECC                     u4831:
  1827  0ECC  2ED0               	goto	l6284
  1828  0ECD                     u4830:
  1829                           	line	253
  1830                           	
  1831  0ECD                     l6280:	
  1832                           ;i2c.c: 253: return !0;
  1833  0ECD  3001               	movlw	(01h)
  1834  0ECE  2ED2               	goto	l631
  1835                           	
  1836  0ECF                     l6282:	
  1837  0ECF  2ED2               	goto	l631
  1838                           	
  1839  0ED0                     l630:	
  1840                           	line	255
  1841                           	
  1842  0ED0                     l6284:	
  1843                           ;i2c.c: 255: return 0;
  1844  0ED0  3000               	movlw	(0)
  1845  0ED1  2ED2               	goto	l631
  1846                           	
  1847  0ED2                     l6286:	
  1848                           	line	256
  1849                           	
  1850  0ED2                     l631:	
  1851  0ED2  0008               	return
  1852                           	opt stack 0
  1853                           GLOBAL	__end_of_i2c_Open
  1854  0ED3                     	__end_of_i2c_Open:
  1855 ;; =============== function _i2c_Open ends ============
  1856                           
  1857                           	signat	_i2c_Open,8313
  1858                           	global	_i2c_PutString
  1859                           psect	text980,local,class=CODE,delta=2
  1860                           global __ptext980
  1861  0F7B                     __ptext980:
  1862                           
  1863 ;; *************** function _i2c_PutString *****************
  1864 ;; Defined at:
  1865 ;;		line 203 in file "../mylibs/i2c/i2c.c"
  1866 ;; Parameters:    Size  Location     Type
  1867 ;;  str             2    5[BANK0 ] PTR const unsigned char 
  1868 ;;		 -> pot_car(1), ROM(8192), 
  1869 ;;  length          1    7[BANK0 ] unsigned char 
  1870 ;; Auto vars:     Size  Location     Type
  1871 ;;  error           1    8[BANK0 ] char 
  1872 ;; Return value:  Size  Location     Type
  1873 ;;                  2    5[BANK0 ] int 
  1874 ;; Registers used:
  1875 ;;		wreg, fsr0l, fsr0h, status,2, status,0, btemp+1, pclath, cstack
  1876 ;; Tracked objects:
  1877 ;;		On entry : 0/0
  1878 ;;		On exit  : 0/0
  1879 ;;		Unchanged: 0/0
  1880 ;; Data sizes:     COMMON   BANK0   BANK1   BANK3   BANK2
  1881 ;;      Params:         0       3       0       0       0
  1882 ;;      Locals:         0       1       0       0       0
  1883 ;;      Temps:          0       0       0       0       0
  1884 ;;      Totals:         0       4       0       0       0
  1885 ;;Total ram usage:        4 bytes
  1886 ;; Hardware stack levels used:    1
  1887 ;; Hardware stack levels required when called:    4
  1888 ;; This function calls:
  1889 ;;		_i2c_PutByte
  1890 ;; This function is called by:
  1891 ;;		_init_dig_pot
  1892 ;;		_send_pot_val
  1893 ;; This function uses a non-reentrant model
  1894 ;;
  1895                           psect	text980
  1896                           	file	"../mylibs/i2c/i2c.c"
  1897                           	line	203
  1898                           	global	__size_of_i2c_PutString
  1899  0034                     	__size_of_i2c_PutString	equ	__end_of_i2c_PutString-_i2c_PutString
  1900                           	
  1901  0F7B                     _i2c_PutString:	
  1902                           	opt	stack 2
  1903                           ; Regs used in _i2c_PutString: [wreg-fsr0h+status,2+status,0+btemp+1+pclath+cstack]
  1904                           	line	206
  1905                           	
  1906  0F7B                     l6258:	
  1907                           ;i2c.c: 204: signed char error;
  1908                           ;i2c.c: 206: while(length)
  1909  0F7B  2FA6               	goto	l613
  1910                           	
  1911  0F7C                     l614:	
  1912                           	line	208
  1913                           	
  1914  0F7C                     l6260:	
  1915                           ;i2c.c: 207: {
  1916                           ;i2c.c: 208: if((error = i2c_PutByte(*str)) == (-1))
  1917  0F7C  1283               	bcf	status, 5	;RP0=0, select bank0
  1918  0F7D  1303               	bcf	status, 6	;RP1=0, select bank0
  1919  0F7E  0826               	movf	(i2c_PutString@str+1),w
  1920  0F7F  00FF               	movwf	btemp+1
  1921  0F80  0825               	movf	(i2c_PutString@str),w
  1922  0F81  0084               	movwf	fsr0
  1923  0F82  120A  158A  2000   	fcall	stringtab
              120A  158A         
  1924  0F87  120A  158A  2618   	fcall	_i2c_PutByte
              120A  158A         
  1925  0F8C  1283               	bcf	status, 5	;RP0=0, select bank0
  1926  0F8D  1303               	bcf	status, 6	;RP1=0, select bank0
  1927  0F8E  00A8               	movwf	(i2c_PutString@error)
  1928  0F8F  3AFF               	xorlw	-1
  1929  0F90  1D03               	skipz
  1930  0F91  2F93               	goto	u4801
  1931  0F92  2F94               	goto	u4800
  1932  0F93                     u4801:
  1933  0F93  2F97               	goto	l6266
  1934  0F94                     u4800:
  1935  0F94  2FAE               	goto	l616
  1936                           	line	209
  1937                           	
  1938  0F95                     l6262:	
  1939                           ;i2c.c: 209: return -(int)length;
  1940                           ;	Return value of _i2c_PutString is never used
  1941  0F95  2FAE               	goto	l616
  1942                           	
  1943  0F96                     l6264:	
  1944  0F96  2F9E               	goto	l6270
  1945                           	line	210
  1946                           	
  1947  0F97                     l615:	
  1948                           	line	211
  1949                           	
  1950  0F97                     l6266:	
  1951                           ;i2c.c: 210: else
  1952                           ;i2c.c: 211: if(error)
  1953  0F97  0828               	movf	(i2c_PutString@error),w
  1954  0F98  1D03               	skipz
  1955  0F99  2F9B               	goto	u4810
  1956  0F9A  2F9E               	goto	l6270
  1957  0F9B                     u4810:
  1958  0F9B  2FAE               	goto	l616
  1959                           	line	212
  1960                           	
  1961  0F9C                     l6268:	
  1962                           ;i2c.c: 212: return (int)length;
  1963                           ;	Return value of _i2c_PutString is never used
  1964  0F9C  2FAE               	goto	l616
  1965                           	
  1966  0F9D                     l618:	
  1967  0F9D  2F9E               	goto	l6270
  1968                           	line	213
  1969                           	
  1970  0F9E                     l617:	
  1971                           	
  1972  0F9E                     l6270:	
  1973                           ;i2c.c: 213: str++;
  1974  0F9E  3001               	movlw	low(01h)
  1975  0F9F  07A5               	addwf	(i2c_PutString@str),f
  1976  0FA0  1803               	skipnc
  1977  0FA1  0AA6               	incf	(i2c_PutString@str+1),f
  1978  0FA2  3000               	movlw	high(01h)
  1979  0FA3  07A6               	addwf	(i2c_PutString@str+1),f
  1980                           	line	214
  1981                           	
  1982  0FA4                     l6272:	
  1983                           ;i2c.c: 214: length--;
  1984  0FA4  3001               	movlw	low(01h)
  1985  0FA5  02A7               	subwf	(i2c_PutString@length),f
  1986                           	line	215
  1987                           	
  1988  0FA6                     l613:	
  1989                           	line	206
  1990  0FA6  1283               	bcf	status, 5	;RP0=0, select bank0
  1991  0FA7  1303               	bcf	status, 6	;RP1=0, select bank0
  1992  0FA8  08A7               	movf	(i2c_PutString@length),f
  1993  0FA9  1D03               	skipz
  1994  0FAA  2FAC               	goto	u4821
  1995  0FAB  2FAD               	goto	u4820
  1996  0FAC                     u4821:
  1997  0FAC  2F7C               	goto	l6260
  1998  0FAD                     u4820:
  1999  0FAD  2FAE               	goto	l616
  2000                           	
  2001  0FAE                     l619:	
  2002                           	line	218
  2003                           ;i2c.c: 215: }
  2004                           ;i2c.c: 217: return 0;
  2005                           ;	Return value of _i2c_PutString is never used
  2006                           	
  2007  0FAE                     l616:	
  2008  0FAE  0008               	return
  2009                           	opt stack 0
  2010                           GLOBAL	__end_of_i2c_PutString
  2011  0FAF                     	__end_of_i2c_PutString:
  2012 ;; =============== function _i2c_PutString ends ============
  2013                           
  2014                           	signat	_i2c_PutString,8314
  2015                           	global	_i2c_PutByte
  2016                           psect	text981,local,class=CODE,delta=2
  2017                           global __ptext981
  2018  0E18                     __ptext981:
  2019                           
  2020 ;; *************** function _i2c_PutByte *****************
  2021 ;; Defined at:
  2022 ;;		line 174 in file "../mylibs/i2c/i2c.c"
  2023 ;; Parameters:    Size  Location     Type
  2024 ;;  data            1    wreg     unsigned char 
  2025 ;; Auto vars:     Size  Location     Type
  2026 ;;  data            1    4[BANK0 ] unsigned char 
  2027 ;; Return value:  Size  Location     Type
  2028 ;;                  1    wreg      char 
  2029 ;; Registers used:
  2030 ;;		wreg, status,2, status,0, pclath, cstack
  2031 ;; Tracked objects:
  2032 ;;		On entry : 0/0
  2033 ;;		On exit  : 0/0
  2034 ;;		Unchanged: 0/0
  2035 ;; Data sizes:     COMMON   BANK0   BANK1   BANK3   BANK2
  2036 ;;      Params:         0       0       0       0       0
  2037 ;;      Locals:         0       1       0       0       0
  2038 ;;      Temps:          0       0       0       0       0
  2039 ;;      Totals:         0       1       0       0       0
  2040 ;;Total ram usage:        1 bytes
  2041 ;; Hardware stack levels used:    1
  2042 ;; Hardware stack levels required when called:    3
  2043 ;; This function calls:
  2044 ;;		_i2c_SendByte
  2045 ;;		_i2c_ReadAcknowledge
  2046 ;; This function is called by:
  2047 ;;		_i2c_PutString
  2048 ;; This function uses a non-reentrant model
  2049 ;;
  2050                           psect	text981
  2051                           	file	"../mylibs/i2c/i2c.c"
  2052                           	line	174
  2053                           	global	__size_of_i2c_PutByte
  2054  0018                     	__size_of_i2c_PutByte	equ	__end_of_i2c_PutByte-_i2c_PutByte
  2055                           	
  2056  0E18                     _i2c_PutByte:	
  2057                           	opt	stack 2
  2058                           ; Regs used in _i2c_PutByte: [wreg+status,2+status,0+pclath+cstack]
  2059                           ;i2c_PutByte@data stored from wreg
  2060  0E18  1283               	bcf	status, 5	;RP0=0, select bank0
  2061  0E19  1303               	bcf	status, 6	;RP1=0, select bank0
  2062  0E1A  00A4               	movwf	(i2c_PutByte@data)
  2063                           	line	175
  2064                           	
  2065  0E1B                     l6248:	
  2066                           ;i2c.c: 175: if(i2c_SendByte(data))
  2067  0E1B  0824               	movf	(i2c_PutByte@data),w
  2068  0E1C  120A  118A  27A4   	fcall	_i2c_SendByte
              120A  158A         
  2069  0E21  3A00               	xorlw	0
  2070  0E22  1903               	skipnz
  2071  0E23  2E25               	goto	u4791
  2072  0E24  2E26               	goto	u4790
  2073  0E25                     u4791:
  2074  0E25  2E29               	goto	l6254
  2075  0E26                     u4790:
  2076                           	line	176
  2077                           	
  2078  0E26                     l6250:	
  2079                           ;i2c.c: 176: return (-1);
  2080  0E26  30FF               	movlw	(-1)
  2081  0E27  2E2F               	goto	l606
  2082                           	
  2083  0E28                     l6252:	
  2084  0E28  2E2F               	goto	l606
  2085                           	
  2086  0E29                     l605:	
  2087                           	line	177
  2088                           	
  2089  0E29                     l6254:	
  2090                           ;i2c.c: 177: return i2c_ReadAcknowledge();
  2091  0E29  120A  158A  268B   	fcall	_i2c_ReadAcknowledge
              120A  158A         
  2092  0E2E  2E2F               	goto	l606
  2093                           	
  2094  0E2F                     l6256:	
  2095                           	line	178
  2096                           	
  2097  0E2F                     l606:	
  2098  0E2F  0008               	return
  2099                           	opt stack 0
  2100                           GLOBAL	__end_of_i2c_PutByte
  2101  0E30                     	__end_of_i2c_PutByte:
  2102 ;; =============== function _i2c_PutByte ends ============
  2103                           
  2104                           	signat	_i2c_PutByte,4217
  2105                           	global	_i2c_SendAddress
  2106                           psect	text982,local,class=CODE,delta=2
  2107                           global __ptext982
  2108  0DB8                     __ptext982:
  2109                           
  2110 ;; *************** function _i2c_SendAddress *****************
  2111 ;; Defined at:
  2112 ;;		line 97 in file "../mylibs/i2c/i2c.c"
  2113 ;; Parameters:    Size  Location     Type
  2114 ;;  address         1    wreg     unsigned char 
  2115 ;;  rw              1    4[BANK0 ] unsigned char 
  2116 ;; Auto vars:     Size  Location     Type
  2117 ;;  address         1    5[BANK0 ] unsigned char 
  2118 ;; Return value:  Size  Location     Type
  2119 ;;                  1    wreg      unsigned char 
  2120 ;; Registers used:
  2121 ;;		wreg, status,2, status,0, pclath, cstack
  2122 ;; Tracked objects:
  2123 ;;		On entry : 0/0
  2124 ;;		On exit  : 0/0
  2125 ;;		Unchanged: 0/0
  2126 ;; Data sizes:     COMMON   BANK0   BANK1   BANK3   BANK2
  2127 ;;      Params:         0       1       0       0       0
  2128 ;;      Locals:         0       1       0       0       0
  2129 ;;      Temps:          0       0       0       0       0
  2130 ;;      Totals:         0       2       0       0       0
  2131 ;;Total ram usage:        2 bytes
  2132 ;; Hardware stack levels used:    1
  2133 ;; Hardware stack levels required when called:    3
  2134 ;; This function calls:
  2135 ;;		_i2c_SendByte
  2136 ;; This function is called by:
  2137 ;;		_i2c_Open
  2138 ;; This function uses a non-reentrant model
  2139 ;;
  2140                           psect	text982
  2141                           	file	"../mylibs/i2c/i2c.c"
  2142                           	line	97
  2143                           	global	__size_of_i2c_SendAddress
  2144  000F                     	__size_of_i2c_SendAddress	equ	__end_of_i2c_SendAddress-_i2c_SendAddress
  2145                           	
  2146  0DB8                     _i2c_SendAddress:	
  2147                           	opt	stack 2
  2148                           ; Regs used in _i2c_SendAddress: [wreg+status,2+status,0+pclath+cstack]
  2149                           ;i2c_SendAddress@address stored from wreg
  2150  0DB8  1283               	bcf	status, 5	;RP0=0, select bank0
  2151  0DB9  1303               	bcf	status, 6	;RP1=0, select bank0
  2152  0DBA  00A5               	movwf	(i2c_SendAddress@address)
  2153                           	line	98
  2154                           	
  2155  0DBB                     l6244:	
  2156                           ;i2c.c: 98: return i2c_SendByte(address | (rw?1:0));
  2157                           ;	Return value of _i2c_SendAddress is never used
  2158  0DBB  3000               	movlw	0
  2159  0DBC  08A4               	movf	(i2c_SendAddress@rw),f
  2160  0DBD  1D03               	skipz
  2161  0DBE  3001               	movlw	1
  2162  0DBF  0425               	iorwf	(i2c_SendAddress@address),w
  2163  0DC0  120A  118A  27A4   	fcall	_i2c_SendByte
              120A  158A         
  2164  0DC5  2DC6               	goto	l587
  2165                           	
  2166  0DC6                     l6246:	
  2167                           	line	99
  2168                           	
  2169  0DC6                     l587:	
  2170  0DC6  0008               	return
  2171                           	opt stack 0
  2172                           GLOBAL	__end_of_i2c_SendAddress
  2173  0DC7                     	__end_of_i2c_SendAddress:
  2174 ;; =============== function _i2c_SendAddress ends ============
  2175                           
  2176                           	signat	_i2c_SendAddress,8313
  2177                           	global	_init_pic
  2178                           psect	text983,local,class=CODE,delta=2
  2179                           global __ptext983
  2180  03F9                     __ptext983:
  2181                           
  2182 ;; *************** function _init_pic *****************
  2183 ;; Defined at:
  2184 ;;		line 10 in file "init.c"
  2185 ;; Parameters:    Size  Location     Type
  2186 ;;		None
  2187 ;; Auto vars:     Size  Location     Type
  2188 ;;		None
  2189 ;; Return value:  Size  Location     Type
  2190 ;;		None               void
  2191 ;; Registers used:
  2192 ;;		wreg, status,2, status,0, pclath, cstack
  2193 ;; Tracked objects:
  2194 ;;		On entry : 0/0
  2195 ;;		On exit  : 0/0
  2196 ;;		Unchanged: 0/0
  2197 ;; Data sizes:     COMMON   BANK0   BANK1   BANK3   BANK2
  2198 ;;      Params:         0       0       0       0       0
  2199 ;;      Locals:         0       0       0       0       0
  2200 ;;      Temps:          0       4       0       0       0
  2201 ;;      Totals:         0       4       0       0       0
  2202 ;;Total ram usage:        4 bytes
  2203 ;; Hardware stack levels used:    1
  2204 ;; Hardware stack levels required when called:    3
  2205 ;; This function calls:
  2206 ;;		___ftmul
  2207 ;;		___fttol
  2208 ;;		___lwtoft
  2209 ;;		_setup_adc
  2210 ;; This function is called by:
  2211 ;;		_main
  2212 ;; This function uses a non-reentrant model
  2213 ;;
  2214                           psect	text983
  2215                           	file	"init.c"
  2216                           	line	10
  2217                           	global	__size_of_init_pic
  2218  012C                     	__size_of_init_pic	equ	__end_of_init_pic-_init_pic
  2219                           	
  2220  03F9                     _init_pic:	
  2221                           	opt	stack 4
  2222                           ; Regs used in _init_pic: [wreg+status,2+status,0+pclath+cstack]
  2223                           	line	11
  2224                           	
  2225  03F9                     l6200:	
  2226                           ;init.c: 11: TRISA = 0b00000111;
  2227  03F9  3007               	movlw	(07h)
  2228  03FA  1683               	bsf	status, 5	;RP0=1, select bank1
  2229  03FB  1303               	bcf	status, 6	;RP1=0, select bank1
  2230  03FC  0085               	movwf	(133)^080h	;volatile
  2231                           	line	12
  2232                           ;init.c: 12: TRISB = 0b00000001;
  2233  03FD  3001               	movlw	(01h)
  2234  03FE  0086               	movwf	(134)^080h	;volatile
  2235                           	line	13
  2236                           ;init.c: 13: TRISC = 0b11111111;
  2237  03FF  30FF               	movlw	(0FFh)
  2238  0400  0087               	movwf	(135)^080h	;volatile
  2239                           	line	20
  2240                           ;init.c: 20: t_osc = 4.0/4000000;
  2241  0401  3038               	movlw	0x38
  2242  0402  00A3               	movwf	(_t_osc)^080h
  2243  0403  3086               	movlw	0x86
  2244  0404  00A4               	movwf	(_t_osc+1)^080h
  2245  0405  3035               	movlw	0x35
  2246  0406  00A5               	movwf	(_t_osc+2)^080h
  2247                           	line	21
  2248                           	
  2249  0407                     l6202:	
  2250                           ;init.c: 21: t_osc_pres = t_osc * 5;
  2251  0407  3000               	movlw	0x0
  2252  0408  1283               	bcf	status, 5	;RP0=0, select bank0
  2253  0409  1303               	bcf	status, 6	;RP1=0, select bank0
  2254  040A  00BE               	movwf	(?___ftmul)
  2255  040B  30A0               	movlw	0xa0
  2256  040C  00BF               	movwf	(?___ftmul+1)
  2257  040D  3040               	movlw	0x40
  2258  040E  00C0               	movwf	(?___ftmul+2)
  2259  040F  1683               	bsf	status, 5	;RP0=1, select bank1
  2260  0410  1303               	bcf	status, 6	;RP1=0, select bank1
  2261  0411  0823               	movf	(_t_osc)^080h,w
  2262  0412  1283               	bcf	status, 5	;RP0=0, select bank0
  2263  0413  1303               	bcf	status, 6	;RP1=0, select bank0
  2264  0414  00C1               	movwf	0+(?___ftmul)+03h
  2265  0415  1683               	bsf	status, 5	;RP0=1, select bank1
  2266  0416  1303               	bcf	status, 6	;RP1=0, select bank1
  2267  0417  0824               	movf	(_t_osc+1)^080h,w
  2268  0418  1283               	bcf	status, 5	;RP0=0, select bank0
  2269  0419  1303               	bcf	status, 6	;RP1=0, select bank0
  2270  041A  00C2               	movwf	1+(?___ftmul)+03h
  2271  041B  1683               	bsf	status, 5	;RP0=1, select bank1
  2272  041C  1303               	bcf	status, 6	;RP1=0, select bank1
  2273  041D  0825               	movf	(_t_osc+2)^080h,w
  2274  041E  1283               	bcf	status, 5	;RP0=0, select bank0
  2275  041F  1303               	bcf	status, 6	;RP1=0, select bank0
  2276  0420  00C3               	movwf	2+(?___ftmul)+03h
  2277  0421  120A  118A  2525   	fcall	___ftmul
              120A  118A         
  2278  0426  1283               	bcf	status, 5	;RP0=0, select bank0
  2279  0427  1303               	bcf	status, 6	;RP1=0, select bank0
  2280  0428  083E               	movf	(0+(?___ftmul)),w
  2281  0429  00EC               	movwf	(_t_osc_pres)
  2282  042A  083F               	movf	(1+(?___ftmul)),w
  2283  042B  00ED               	movwf	(_t_osc_pres+1)
  2284  042C  0840               	movf	(2+(?___ftmul)),w
  2285  042D  00EE               	movwf	(_t_osc_pres+2)
  2286                           	line	24
  2287                           	
  2288  042E                     l6204:	
  2289                           ;init.c: 24: pwm_period = 20.0E-3*t_osc_pres;
  2290  042E  086C               	movf	(_t_osc_pres),w
  2291  042F  00C1               	movwf	0+(?___ftmul)+03h
  2292  0430  086D               	movf	(_t_osc_pres+1),w
  2293  0431  00C2               	movwf	1+(?___ftmul)+03h
  2294  0432  086E               	movf	(_t_osc_pres+2),w
  2295  0433  00C3               	movwf	2+(?___ftmul)+03h
  2296  0434  30D7               	movlw	0xd7
  2297  0435  00BE               	movwf	(?___ftmul)
  2298  0436  30A3               	movlw	0xa3
  2299  0437  00BF               	movwf	(?___ftmul+1)
  2300  0438  303C               	movlw	0x3c
  2301  0439  00C0               	movwf	(?___ftmul+2)
  2302  043A  120A  118A  2525   	fcall	___ftmul
              120A  118A         
  2303  043F  1283               	bcf	status, 5	;RP0=0, select bank0
  2304  0440  1303               	bcf	status, 6	;RP1=0, select bank0
  2305  0441  083E               	movf	(0+(?___ftmul)),w
  2306  0442  00A8               	movwf	(?___fttol)
  2307  0443  083F               	movf	(1+(?___ftmul)),w
  2308  0444  00A9               	movwf	(?___fttol+1)
  2309  0445  0840               	movf	(2+(?___ftmul)),w
  2310  0446  00AA               	movwf	(?___fttol+2)
  2311  0447  120A  118A  2613   	fcall	___fttol
              120A  118A         
  2312  044C  1283               	bcf	status, 5	;RP0=0, select bank0
  2313  044D  1303               	bcf	status, 6	;RP1=0, select bank0
  2314  044E  0829               	movf	1+(((0+(?___fttol)))),w
  2315  044F  01EB               	clrf	(_pwm_period+1)
  2316  0450  07EB               	addwf	(_pwm_period+1)
  2317  0451  0828               	movf	0+(((0+(?___fttol)))),w
  2318  0452  01EA               	clrf	(_pwm_period)
  2319  0453  07EA               	addwf	(_pwm_period)
  2320                           
  2321                           	line	25
  2322                           	
  2323  0454                     l6206:	
  2324                           ;init.c: 25: min_pwm_duty = (unsigned int) 1.0E-3 * t_osc_pres;
  2325  0454  086C               	movf	(_t_osc_pres),w
  2326  0455  00C1               	movwf	0+(?___ftmul)+03h
  2327  0456  086D               	movf	(_t_osc_pres+1),w
  2328  0457  00C2               	movwf	1+(?___ftmul)+03h
  2329  0458  086E               	movf	(_t_osc_pres+2),w
  2330  0459  00C3               	movwf	2+(?___ftmul)+03h
  2331  045A  3000               	movlw	0x0
  2332  045B  00BE               	movwf	(?___ftmul)
  2333  045C  3000               	movlw	0x0
  2334  045D  00BF               	movwf	(?___ftmul+1)
  2335  045E  3000               	movlw	0x0
  2336  045F  00C0               	movwf	(?___ftmul+2)
  2337  0460  120A  118A  2525   	fcall	___ftmul
              120A  118A         
  2338  0465  1283               	bcf	status, 5	;RP0=0, select bank0
  2339  0466  1303               	bcf	status, 6	;RP1=0, select bank0
  2340  0467  083E               	movf	(0+(?___ftmul)),w
  2341  0468  00A8               	movwf	(?___fttol)
  2342  0469  083F               	movf	(1+(?___ftmul)),w
  2343  046A  00A9               	movwf	(?___fttol+1)
  2344  046B  0840               	movf	(2+(?___ftmul)),w
  2345  046C  00AA               	movwf	(?___fttol+2)
  2346  046D  120A  118A  2613   	fcall	___fttol
              120A  118A         
  2347  0472  1283               	bcf	status, 5	;RP0=0, select bank0
  2348  0473  1303               	bcf	status, 6	;RP1=0, select bank0
  2349  0474  0829               	movf	1+(((0+(?___fttol)))),w
  2350  0475  01E9               	clrf	(_min_pwm_duty+1)
  2351  0476  07E9               	addwf	(_min_pwm_duty+1)
  2352  0477  0828               	movf	0+(((0+(?___fttol)))),w
  2353  0478  01E8               	clrf	(_min_pwm_duty)
  2354  0479  07E8               	addwf	(_min_pwm_duty)
  2355                           
  2356                           	line	26
  2357                           	
  2358  047A                     l6208:	
  2359                           ;init.c: 26: max_pwm_duty = (unsigned int) 2.0E-3 * t_osc_pres;
  2360  047A  086C               	movf	(_t_osc_pres),w
  2361  047B  00C1               	movwf	0+(?___ftmul)+03h
  2362  047C  086D               	movf	(_t_osc_pres+1),w
  2363  047D  00C2               	movwf	1+(?___ftmul)+03h
  2364  047E  086E               	movf	(_t_osc_pres+2),w
  2365  047F  00C3               	movwf	2+(?___ftmul)+03h
  2366  0480  3000               	movlw	0x0
  2367  0481  00BE               	movwf	(?___ftmul)
  2368  0482  3000               	movlw	0x0
  2369  0483  00BF               	movwf	(?___ftmul+1)
  2370  0484  3000               	movlw	0x0
  2371  0485  00C0               	movwf	(?___ftmul+2)
  2372  0486  120A  118A  2525   	fcall	___ftmul
              120A  118A         
  2373  048B  1283               	bcf	status, 5	;RP0=0, select bank0
  2374  048C  1303               	bcf	status, 6	;RP1=0, select bank0
  2375  048D  083E               	movf	(0+(?___ftmul)),w
  2376  048E  00A8               	movwf	(?___fttol)
  2377  048F  083F               	movf	(1+(?___ftmul)),w
  2378  0490  00A9               	movwf	(?___fttol+1)
  2379  0491  0840               	movf	(2+(?___ftmul)),w
  2380  0492  00AA               	movwf	(?___fttol+2)
  2381  0493  120A  118A  2613   	fcall	___fttol
              120A  118A         
  2382  0498  1283               	bcf	status, 5	;RP0=0, select bank0
  2383  0499  1303               	bcf	status, 6	;RP1=0, select bank0
  2384  049A  0829               	movf	1+(((0+(?___fttol)))),w
  2385  049B  1683               	bsf	status, 5	;RP0=1, select bank1
  2386  049C  1303               	bcf	status, 6	;RP1=0, select bank1
  2387  049D  01A7               	clrf	(_max_pwm_duty+1)^080h
  2388  049E  07A7               	addwf	(_max_pwm_duty+1)^080h
  2389  049F  1283               	bcf	status, 5	;RP0=0, select bank0
  2390  04A0  1303               	bcf	status, 6	;RP1=0, select bank0
  2391  04A1  0828               	movf	0+(((0+(?___fttol)))),w
  2392  04A2  1683               	bsf	status, 5	;RP0=1, select bank1
  2393  04A3  1303               	bcf	status, 6	;RP1=0, select bank1
  2394  04A4  01A6               	clrf	(_max_pwm_duty)^080h
  2395  04A5  07A6               	addwf	(_max_pwm_duty)^080h
  2396                           
  2397                           	line	28
  2398                           	
  2399  04A6                     l6210:	
  2400                           ;init.c: 28: m_adc2timer = (max_pwm_duty - min_pwm_duty)/1024;
  2401  04A6  1283               	bcf	status, 5	;RP0=0, select bank0
  2402  04A7  1303               	bcf	status, 6	;RP1=0, select bank0
  2403  04A8  0968               	comf	(_min_pwm_duty),w
  2404  04A9  00CE               	movwf	(??_init_pic+0)+0
  2405  04AA  0969               	comf	(_min_pwm_duty+1),w
  2406  04AB  00CF               	movwf	((??_init_pic+0)+0+1)
  2407  04AC  0ACE               	incf	(??_init_pic+0)+0,f
  2408  04AD  1903               	skipnz
  2409  04AE  0ACF               	incf	((??_init_pic+0)+0+1),f
  2410  04AF  1683               	bsf	status, 5	;RP0=1, select bank1
  2411  04B0  1303               	bcf	status, 6	;RP1=0, select bank1
  2412  04B1  0826               	movf	(_max_pwm_duty)^080h,w
  2413  04B2  1283               	bcf	status, 5	;RP0=0, select bank0
  2414  04B3  1303               	bcf	status, 6	;RP1=0, select bank0
  2415  04B4  074E               	addwf	0+(??_init_pic+0)+0,w
  2416  04B5  00D0               	movwf	(??_init_pic+2)+0
  2417  04B6  1683               	bsf	status, 5	;RP0=1, select bank1
  2418  04B7  1303               	bcf	status, 6	;RP1=0, select bank1
  2419  04B8  0827               	movf	(_max_pwm_duty+1)^080h,w
  2420  04B9  1803               	skipnc
  2421  04BA  0A27               	incf	(_max_pwm_duty+1)^080h,w
  2422  04BB  1283               	bcf	status, 5	;RP0=0, select bank0
  2423  04BC  1303               	bcf	status, 6	;RP1=0, select bank0
  2424  04BD  074F               	addwf	1+(??_init_pic+0)+0,w
  2425  04BE  00D1               	movwf	1+(??_init_pic+2)+0
  2426  04BF  300A               	movlw	0Ah
  2427  04C0                     u4785:
  2428  04C0  1003               	clrc
  2429  04C1  0CD1               	rrf	(??_init_pic+2)+1,f
  2430  04C2  0CD0               	rrf	(??_init_pic+2)+0,f
  2431  04C3  3EFF               	addlw	-1
  2432  04C4  1D03               	skipz
  2433  04C5  2CC0               	goto	u4785
  2434  04C6  0850               	movf	0+(??_init_pic+2)+0,w
  2435  04C7  00B6               	movwf	(?___lwtoft)
  2436  04C8  0851               	movf	1+(??_init_pic+2)+0,w
  2437  04C9  00B7               	movwf	(?___lwtoft+1)
  2438  04CA  120A  158A  2630   	fcall	___lwtoft
              120A  118A         
  2439  04CF  1283               	bcf	status, 5	;RP0=0, select bank0
  2440  04D0  1303               	bcf	status, 6	;RP1=0, select bank0
  2441  04D1  0836               	movf	(0+(?___lwtoft)),w
  2442  04D2  1683               	bsf	status, 5	;RP0=1, select bank1
  2443  04D3  1303               	bcf	status, 6	;RP1=0, select bank1
  2444  04D4  00A0               	movwf	(_m_adc2timer)^080h
  2445  04D5  1283               	bcf	status, 5	;RP0=0, select bank0
  2446  04D6  1303               	bcf	status, 6	;RP1=0, select bank0
  2447  04D7  0837               	movf	(1+(?___lwtoft)),w
  2448  04D8  1683               	bsf	status, 5	;RP0=1, select bank1
  2449  04D9  1303               	bcf	status, 6	;RP1=0, select bank1
  2450  04DA  00A1               	movwf	(_m_adc2timer+1)^080h
  2451  04DB  1283               	bcf	status, 5	;RP0=0, select bank0
  2452  04DC  1303               	bcf	status, 6	;RP1=0, select bank0
  2453  04DD  0838               	movf	(2+(?___lwtoft)),w
  2454  04DE  1683               	bsf	status, 5	;RP0=1, select bank1
  2455  04DF  1303               	bcf	status, 6	;RP1=0, select bank1
  2456  04E0  00A2               	movwf	(_m_adc2timer+2)^080h
  2457                           	line	29
  2458                           	
  2459  04E1                     l6212:	
  2460                           ;init.c: 29: b_adc2timer = min_pwm_duty;
  2461  04E1  1283               	bcf	status, 5	;RP0=0, select bank0
  2462  04E2  1303               	bcf	status, 6	;RP1=0, select bank0
  2463  04E3  0868               	movf	(_min_pwm_duty),w
  2464  04E4  00CE               	movwf	(??_init_pic+0)+0
  2465  04E5  084E               	movf	(??_init_pic+0)+0,w
  2466  04E6  00F7               	movwf	(_b_adc2timer)
  2467                           	line	32
  2468                           	
  2469  04E7                     l6214:	
  2470                           ;init.c: 32: duty_value = min_pwm_duty;
  2471  04E7  0869               	movf	(_min_pwm_duty+1),w
  2472  04E8  01F6               	clrf	(_duty_value+1)
  2473  04E9  07F6               	addwf	(_duty_value+1)
  2474  04EA  0868               	movf	(_min_pwm_duty),w
  2475  04EB  01F5               	clrf	(_duty_value)
  2476  04EC  07F5               	addwf	(_duty_value)
  2477                           
  2478                           	line	37
  2479                           	
  2480  04ED                     l6216:	
  2481                           ;init.c: 37: setup_adc(0b10111111 & 0b11101111 & 0b11011111 & 0b11110100);
  2482  04ED  3084               	movlw	(084h)
  2483  04EE  120A  118A  2015   	fcall	_setup_adc
              120A  118A         
  2484                           	line	41
  2485                           	
  2486  04F3                     l6218:	
  2487                           ;init.c: 41: RB1 = (0b000000010 & 0b01011110)>>1;
  2488  04F3  1283               	bcf	status, 5	;RP0=0, select bank0
  2489  04F4  1303               	bcf	status, 6	;RP1=0, select bank0
  2490  04F5  1486               	bsf	(49/8),(49)&7
  2491                           	line	42
  2492                           	
  2493  04F6                     l6220:	
  2494                           ;init.c: 42: RB5 = (0b000000100 & 0b01011110)>>2;
  2495  04F6  1686               	bsf	(53/8),(53)&7
  2496                           	line	45
  2497                           	
  2498  04F7                     l6222:	
  2499                           ;init.c: 45: pot_values[0] = 0x00;
  2500  04F7  1683               	bsf	status, 5	;RP0=1, select bank1
  2501  04F8  1303               	bcf	status, 6	;RP1=0, select bank1
  2502  04F9  01A8               	clrf	(_pot_values)^080h
  2503                           	line	46
  2504                           	
  2505  04FA                     l6224:	
  2506                           ;init.c: 46: pot_values[2] = 0x60;
  2507  04FA  3060               	movlw	(060h)
  2508  04FB  1283               	bcf	status, 5	;RP0=0, select bank0
  2509  04FC  1303               	bcf	status, 6	;RP1=0, select bank0
  2510  04FD  00CE               	movwf	(??_init_pic+0)+0
  2511  04FE  084E               	movf	(??_init_pic+0)+0,w
  2512  04FF  1683               	bsf	status, 5	;RP0=1, select bank1
  2513  0500  1303               	bcf	status, 6	;RP1=0, select bank1
  2514  0501  00AA               	movwf	0+(_pot_values)^080h+02h
  2515                           	line	47
  2516                           	
  2517  0502                     l6226:	
  2518                           ;init.c: 47: pot_values[4] = 0x70;
  2519  0502  3070               	movlw	(070h)
  2520  0503  1283               	bcf	status, 5	;RP0=0, select bank0
  2521  0504  1303               	bcf	status, 6	;RP1=0, select bank0
  2522  0505  00CE               	movwf	(??_init_pic+0)+0
  2523  0506  084E               	movf	(??_init_pic+0)+0,w
  2524  0507  1683               	bsf	status, 5	;RP0=1, select bank1
  2525  0508  1303               	bcf	status, 6	;RP1=0, select bank1
  2526  0509  00AC               	movwf	0+(_pot_values)^080h+04h
  2527                           	line	50
  2528                           	
  2529  050A                     l6228:	
  2530                           ;init.c: 50: RB4 = 0;
  2531  050A  1283               	bcf	status, 5	;RP0=0, select bank0
  2532  050B  1303               	bcf	status, 6	;RP1=0, select bank0
  2533  050C  1206               	bcf	(52/8),(52)&7
  2534                           	line	52
  2535                           	
  2536  050D                     l6230:	
  2537                           ;init.c: 52: r_pot_adc = 1024/128;
  2538  050D  3000               	movlw	0x0
  2539  050E  00D8               	movwf	(_r_pot_adc)
  2540  050F  3000               	movlw	0x0
  2541  0510  00D9               	movwf	(_r_pot_adc+1)
  2542  0511  3041               	movlw	0x41
  2543  0512  00DA               	movwf	(_r_pot_adc+2)
  2544                           	line	54
  2545                           	
  2546  0513                     l6232:	
  2547                           ;init.c: 54: pot_ref_min_car = (2.5*128)/5.0;
  2548  0513  3040               	movlw	(040h)
  2549  0514  00CE               	movwf	(??_init_pic+0)+0
  2550  0515  084E               	movf	(??_init_pic+0)+0,w
  2551  0516  00E4               	movwf	(_pot_ref_min_car)
  2552                           	line	56
  2553                           	
  2554  0517                     l6234:	
  2555                           ;init.c: 56: counter_pwm = 0;
  2556  0517  01DD               	clrf	(_counter_pwm)
  2557  0518  01DE               	clrf	(_counter_pwm+1)
  2558                           	line	57
  2559                           	
  2560  0519                     l6236:	
  2561                           ;init.c: 57: man_auto = 0;
  2562  0519  01E2               	clrf	(_man_auto)
  2563                           	line	64
  2564                           	
  2565  051A                     l6238:	
  2566                           ;init.c: 64: OPTION_REG = 0b01110100;
  2567  051A  3074               	movlw	(074h)
  2568  051B  1683               	bsf	status, 5	;RP0=1, select bank1
  2569  051C  1303               	bcf	status, 6	;RP1=0, select bank1
  2570  051D  0081               	movwf	(129)^080h	;volatile
  2571                           	line	65
  2572                           	
  2573  051E                     l6240:	
  2574                           ;init.c: 65: TMR0 = 1;
  2575  051E  3001               	movlw	(01h)
  2576  051F  1283               	bcf	status, 5	;RP0=0, select bank0
  2577  0520  1303               	bcf	status, 6	;RP1=0, select bank0
  2578  0521  0081               	movwf	(1)	;volatile
  2579                           	line	68
  2580                           	
  2581  0522                     l6242:	
  2582                           ;init.c: 68: INTCON = 0b11110000;
  2583  0522  30F0               	movlw	(0F0h)
  2584  0523  008B               	movwf	(11)	;volatile
  2585                           	line	69
  2586                           	
  2587  0524                     l1863:	
  2588  0524  0008               	return
  2589                           	opt stack 0
  2590                           GLOBAL	__end_of_init_pic
  2591  0525                     	__end_of_init_pic:
  2592 ;; =============== function _init_pic ends ============
  2593                           
  2594                           	signat	_init_pic,88
  2595                           	global	_i2c_ReadAcknowledge
  2596                           psect	text984,local,class=CODE,delta=2
  2597                           global __ptext984
  2598  0E8B                     __ptext984:
  2599                           
  2600 ;; *************** function _i2c_ReadAcknowledge *****************
  2601 ;; Defined at:
  2602 ;;		line 107 in file "../mylibs/i2c/i2c.c"
  2603 ;; Parameters:    Size  Location     Type
  2604 ;;		None
  2605 ;; Auto vars:     Size  Location     Type
  2606 ;;  ack             1    2[BANK0 ] unsigned char 
  2607 ;; Return value:  Size  Location     Type
  2608 ;;                  1    wreg      char 
  2609 ;; Registers used:
  2610 ;;		wreg, pclath, cstack
  2611 ;; Tracked objects:
  2612 ;;		On entry : 0/0
  2613 ;;		On exit  : 0/0
  2614 ;;		Unchanged: 0/0
  2615 ;; Data sizes:     COMMON   BANK0   BANK1   BANK3   BANK2
  2616 ;;      Params:         0       0       0       0       0
  2617 ;;      Locals:         0       1       0       0       0
  2618 ;;      Temps:          0       1       0       0       0
  2619 ;;      Totals:         0       2       0       0       0
  2620 ;;Total ram usage:        2 bytes
  2621 ;; Hardware stack levels used:    1
  2622 ;; Hardware stack levels required when called:    2
  2623 ;; This function calls:
  2624 ;;		_i2c_WaitForSCL
  2625 ;; This function is called by:
  2626 ;;		_i2c_PutByte
  2627 ;;		_i2c_Open
  2628 ;; This function uses a non-reentrant model
  2629 ;;
  2630                           psect	text984
  2631                           	file	"../mylibs/i2c/i2c.c"
  2632                           	line	107
  2633                           	global	__size_of_i2c_ReadAcknowledge
  2634  0024                     	__size_of_i2c_ReadAcknowledge	equ	__end_of_i2c_ReadAcknowledge-_i2c_ReadAcknowledge
  2635                           	
  2636  0E8B                     _i2c_ReadAcknowledge:	
  2637                           	opt	stack 2
  2638                           ; Regs used in _i2c_ReadAcknowledge: [wreg+pclath+cstack]
  2639                           	line	110
  2640                           	
  2641  0E8B                     l6186:	
  2642                           ;i2c.c: 108: unsigned char ack;
  2643                           ;i2c.c: 110: TRISC3 = 0;
  2644  0E8B  1683               	bsf	status, 5	;RP0=1, select bank1
  2645  0E8C  1303               	bcf	status, 6	;RP1=0, select bank1
  2646  0E8D  1187               	bcf	(1083/8)^080h,(1083)&7
  2647                           	line	111
  2648                           ;i2c.c: 111: TRISC4 = 1;
  2649  0E8E  1607               	bsf	(1084/8)^080h,(1084)&7
  2650                           	line	112
  2651                           ;i2c.c: 112: _delay((unsigned long)((4)*(4000000/4000000.0)));
  2652                           		opt asmopt_off
  2653  0E8F  2E90               	nop2	;2 cycle nop
  2654                           	opt asmopt_on
  2655                           	opt asmopt_off
  2656  0E90  2E91               	nop2	;2 cycle nop
  2657                           	opt asmopt_on
  2658                           
  2659                           	line	113
  2660                           ;i2c.c: 113: TRISC3 = 1;
  2661  0E91  1683               	bsf	status, 5	;RP0=1, select bank1
  2662  0E92  1303               	bcf	status, 6	;RP1=0, select bank1
  2663  0E93  1587               	bsf	(1083/8)^080h,(1083)&7
  2664                           	line	114
  2665                           ;i2c.c: 114: _delay((unsigned long)((1)*(4000000/4000000.0)));
  2666                           		opt asmopt_off
  2667  0E94  0064               	clrwdt
  2668                           	opt asmopt_on
  2669                           
  2670                           	line	115
  2671                           	
  2672  0E95                     l6188:	
  2673                           ;i2c.c: 115: ack = RC4;
  2674  0E95  3000               	movlw	0
  2675  0E96  1283               	bcf	status, 5	;RP0=0, select bank0
  2676  0E97  1303               	bcf	status, 6	;RP1=0, select bank0
  2677  0E98  1A07               	btfsc	(60/8),(60)&7
  2678  0E99  3001               	movlw	1
  2679  0E9A  00A1               	movwf	(??_i2c_ReadAcknowledge+0)+0
  2680  0E9B  0821               	movf	(??_i2c_ReadAcknowledge+0)+0,w
  2681  0E9C  00A2               	movwf	(i2c_ReadAcknowledge@ack)
  2682                           	line	118
  2683                           	
  2684  0E9D                     l6190:	
  2685                           ;i2c.c: 118: if(i2c_WaitForSCL())
  2686  0E9D  120A  158A  2601   	fcall	_i2c_WaitForSCL
              120A  158A         
  2687  0EA2  3A00               	xorlw	0
  2688  0EA3  1903               	skipnz
  2689  0EA4  2EA6               	goto	u4771
  2690  0EA5  2EA7               	goto	u4770
  2691  0EA6                     u4771:
  2692  0EA6  2EAA               	goto	l6196
  2693  0EA7                     u4770:
  2694                           	line	119
  2695                           	
  2696  0EA7                     l6192:	
  2697                           ;i2c.c: 119: return (-1);
  2698  0EA7  30FF               	movlw	(-1)
  2699  0EA8  2EAE               	goto	l591
  2700                           	
  2701  0EA9                     l6194:	
  2702  0EA9  2EAE               	goto	l591
  2703                           	
  2704  0EAA                     l590:	
  2705                           	line	120
  2706                           	
  2707  0EAA                     l6196:	
  2708                           ;i2c.c: 120: return ack;
  2709  0EAA  1283               	bcf	status, 5	;RP0=0, select bank0
  2710  0EAB  1303               	bcf	status, 6	;RP1=0, select bank0
  2711  0EAC  0822               	movf	(i2c_ReadAcknowledge@ack),w
  2712  0EAD  2EAE               	goto	l591
  2713                           	
  2714  0EAE                     l6198:	
  2715                           	line	121
  2716                           	
  2717  0EAE                     l591:	
  2718  0EAE  0008               	return
  2719                           	opt stack 0
  2720                           GLOBAL	__end_of_i2c_ReadAcknowledge
  2721  0EAF                     	__end_of_i2c_ReadAcknowledge:
  2722 ;; =============== function _i2c_ReadAcknowledge ends ============
  2723                           
  2724                           	signat	_i2c_ReadAcknowledge,89
  2725                           	global	_i2c_SendByte
  2726                           psect	text985,local,class=CODE,delta=2
  2727                           global __ptext985
  2728  07A4                     __ptext985:
  2729                           
  2730 ;; *************** function _i2c_SendByte *****************
  2731 ;; Defined at:
  2732 ;;		line 64 in file "../mylibs/i2c/i2c.c"
  2733 ;; Parameters:    Size  Location     Type
  2734 ;;  byte            1    wreg     unsigned char 
  2735 ;; Auto vars:     Size  Location     Type
  2736 ;;  byte            1    2[BANK0 ] unsigned char 
  2737 ;;  i               1    3[BANK0 ] char 
  2738 ;; Return value:  Size  Location     Type
  2739 ;;                  1    wreg      unsigned char 
  2740 ;; Registers used:
  2741 ;;		wreg, status,2, status,0, pclath, cstack
  2742 ;; Tracked objects:
  2743 ;;		On entry : 0/0
  2744 ;;		On exit  : 0/0
  2745 ;;		Unchanged: 0/0
  2746 ;; Data sizes:     COMMON   BANK0   BANK1   BANK3   BANK2
  2747 ;;      Params:         0       0       0       0       0
  2748 ;;      Locals:         0       2       0       0       0
  2749 ;;      Temps:          0       1       0       0       0
  2750 ;;      Totals:         0       3       0       0       0
  2751 ;;Total ram usage:        3 bytes
  2752 ;; Hardware stack levels used:    1
  2753 ;; Hardware stack levels required when called:    2
  2754 ;; This function calls:
  2755 ;;		_i2c_WaitForSCL
  2756 ;; This function is called by:
  2757 ;;		_i2c_SendAddress
  2758 ;;		_i2c_PutByte
  2759 ;; This function uses a non-reentrant model
  2760 ;;
  2761                           psect	text985
  2762                           	file	"../mylibs/i2c/i2c.c"
  2763                           	line	64
  2764                           	global	__size_of_i2c_SendByte
  2765  005C                     	__size_of_i2c_SendByte	equ	__end_of_i2c_SendByte-_i2c_SendByte
  2766                           	
  2767  07A4                     _i2c_SendByte:	
  2768                           	opt	stack 2
  2769                           ; Regs used in _i2c_SendByte: [wreg+status,2+status,0+pclath+cstack]
  2770                           ;i2c_SendByte@byte stored from wreg
  2771                           	line	67
  2772  07A4  1283               	bcf	status, 5	;RP0=0, select bank0
  2773  07A5  1303               	bcf	status, 6	;RP1=0, select bank0
  2774  07A6  00A2               	movwf	(i2c_SendByte@byte)
  2775                           	
  2776  07A7                     l6162:	
  2777                           ;i2c.c: 65: signed char i;
  2778                           ;i2c.c: 67: for(i=7; i>=0; i--)
  2779  07A7  3007               	movlw	(07h)
  2780  07A8  00A1               	movwf	(??_i2c_SendByte+0)+0
  2781  07A9  0821               	movf	(??_i2c_SendByte+0)+0,w
  2782  07AA  00A3               	movwf	(i2c_SendByte@i)
  2783                           	
  2784  07AB                     l6164:	
  2785  07AB  1FA3               	btfss	(i2c_SendByte@i),7
  2786  07AC  2FAE               	goto	u4691
  2787  07AD  2FAF               	goto	u4690
  2788  07AE                     u4691:
  2789  07AE  2FB1               	goto	l579
  2790  07AF                     u4690:
  2791  07AF  2FFD               	goto	l6182
  2792                           	
  2793  07B0                     l6166:	
  2794  07B0  2FFD               	goto	l6182
  2795                           	line	68
  2796                           	
  2797  07B1                     l579:	
  2798                           	line	69
  2799                           ;i2c.c: 68: {
  2800                           ;i2c.c: 69: TRISC3 = 0;
  2801  07B1  1683               	bsf	status, 5	;RP0=1, select bank1
  2802  07B2  1303               	bcf	status, 6	;RP1=0, select bank1
  2803  07B3  1187               	bcf	(1083/8)^080h,(1083)&7
  2804                           	line	72
  2805                           	
  2806  07B4                     l6168:	
  2807                           ;i2c.c: 72: TRISC4 = ((byte>>i)&0x01);
  2808  07B4  1283               	bcf	status, 5	;RP0=0, select bank0
  2809  07B5  1303               	bcf	status, 6	;RP1=0, select bank0
  2810  07B6  0822               	movf	(i2c_SendByte@byte),w
  2811  07B7  00A1               	movwf	(??_i2c_SendByte+0)+0
  2812  07B8  0A23               	incf	(i2c_SendByte@i),w
  2813  07B9  2FBC               	goto	u4704
  2814  07BA                     u4705:
  2815  07BA  1003               	clrc
  2816  07BB  0CA1               	rrf	(??_i2c_SendByte+0)+0,f
  2817  07BC                     u4704:
  2818  07BC  3EFF               	addlw	-1
  2819  07BD  1D03               	skipz
  2820  07BE  2FBA               	goto	u4705
  2821  07BF  1821               	btfsc	0+(??_i2c_SendByte+0)+0,0
  2822  07C0  2FC2               	goto	u4711
  2823  07C1  2FC6               	goto	u4710
  2824                           	
  2825  07C2                     u4711:
  2826  07C2  1683               	bsf	status, 5	;RP0=1, select bank1
  2827  07C3  1303               	bcf	status, 6	;RP1=0, select bank1
  2828  07C4  1607               	bsf	(1084/8)^080h,(1084)&7
  2829  07C5  2FC9               	goto	u4724
  2830  07C6                     u4710:
  2831  07C6  1683               	bsf	status, 5	;RP0=1, select bank1
  2832  07C7  1303               	bcf	status, 6	;RP1=0, select bank1
  2833  07C8  1207               	bcf	(1084/8)^080h,(1084)&7
  2834  07C9                     u4724:
  2835                           	line	73
  2836                           ;i2c.c: 73: if ((byte>>i)&0x01) {
  2837  07C9  1283               	bcf	status, 5	;RP0=0, select bank0
  2838  07CA  1303               	bcf	status, 6	;RP1=0, select bank0
  2839  07CB  0822               	movf	(i2c_SendByte@byte),w
  2840  07CC  00A1               	movwf	(??_i2c_SendByte+0)+0
  2841  07CD  0A23               	incf	(i2c_SendByte@i),w
  2842  07CE  2FD1               	goto	u4734
  2843  07CF                     u4735:
  2844  07CF  1003               	clrc
  2845  07D0  0CA1               	rrf	(??_i2c_SendByte+0)+0,f
  2846  07D1                     u4734:
  2847  07D1  3EFF               	addlw	-1
  2848  07D2  1D03               	skipz
  2849  07D3  2FCF               	goto	u4735
  2850  07D4  1C21               	btfss	0+(??_i2c_SendByte+0)+0,(0)&7
  2851  07D5  2FD7               	goto	u4741
  2852  07D6  2FD8               	goto	u4740
  2853  07D7                     u4741:
  2854  07D7  2FDC               	goto	l581
  2855  07D8                     u4740:
  2856                           	line	74
  2857                           	
  2858  07D8                     l6170:	
  2859                           ;i2c.c: 74: TRISC4 = 1;
  2860  07D8  1683               	bsf	status, 5	;RP0=1, select bank1
  2861  07D9  1303               	bcf	status, 6	;RP1=0, select bank1
  2862  07DA  1607               	bsf	(1084/8)^080h,(1084)&7
  2863                           	line	75
  2864                           ;i2c.c: 75: }else {
  2865  07DB  2FDF               	goto	l582
  2866                           	
  2867  07DC                     l581:	
  2868                           	line	76
  2869                           ;i2c.c: 76: TRISC4 = 0;
  2870  07DC  1683               	bsf	status, 5	;RP0=1, select bank1
  2871  07DD  1303               	bcf	status, 6	;RP1=0, select bank1
  2872  07DE  1207               	bcf	(1084/8)^080h,(1084)&7
  2873                           	line	77
  2874                           	
  2875  07DF                     l582:	
  2876                           	line	78
  2877                           ;i2c.c: 77: }
  2878                           ;i2c.c: 78: _delay((unsigned long)((1)*(4000000/4000000.0)));
  2879                           		opt asmopt_off
  2880  07DF  0064               	clrwdt
  2881                           	opt asmopt_on
  2882                           
  2883                           	line	79
  2884                           ;i2c.c: 79: TRISC3 = 1;
  2885  07E0  1683               	bsf	status, 5	;RP0=1, select bank1
  2886  07E1  1303               	bcf	status, 6	;RP1=0, select bank1
  2887  07E2  1587               	bsf	(1083/8)^080h,(1083)&7
  2888                           	line	81
  2889                           	
  2890  07E3                     l6172:	
  2891                           ;i2c.c: 81: if(i2c_WaitForSCL())
  2892  07E3  120A  158A  2601   	fcall	_i2c_WaitForSCL
              120A  118A         
  2893  07E8  3A00               	xorlw	0
  2894  07E9  1903               	skipnz
  2895  07EA  2FEC               	goto	u4751
  2896  07EB  2FED               	goto	u4750
  2897  07EC                     u4751:
  2898  07EC  2FF0               	goto	l583
  2899  07ED                     u4750:
  2900                           	line	82
  2901                           	
  2902  07ED                     l6174:	
  2903                           ;i2c.c: 82: return !0;
  2904  07ED  3001               	movlw	(01h)
  2905  07EE  2FFF               	goto	l584
  2906                           	
  2907  07EF                     l6176:	
  2908  07EF  2FFF               	goto	l584
  2909                           	
  2910  07F0                     l583:	
  2911                           	line	84
  2912                           ;i2c.c: 84: _delay((unsigned long)((4)*(4000000/4000000.0)));
  2913                           		opt asmopt_off
  2914  07F0  2FF1               	nop2	;2 cycle nop
  2915                           	opt asmopt_on
  2916                           	opt asmopt_off
  2917  07F1  2FF2               	nop2	;2 cycle nop
  2918                           	opt asmopt_on
  2919                           
  2920                           	line	67
  2921                           	
  2922  07F2                     l6178:	
  2923  07F2  30FF               	movlw	(-1)
  2924  07F3  1283               	bcf	status, 5	;RP0=0, select bank0
  2925  07F4  1303               	bcf	status, 6	;RP1=0, select bank0
  2926  07F5  00A1               	movwf	(??_i2c_SendByte+0)+0
  2927  07F6  0821               	movf	(??_i2c_SendByte+0)+0,w
  2928  07F7  07A3               	addwf	(i2c_SendByte@i),f
  2929                           	
  2930  07F8                     l6180:	
  2931  07F8  1FA3               	btfss	(i2c_SendByte@i),7
  2932  07F9  2FFB               	goto	u4761
  2933  07FA  2FFC               	goto	u4760
  2934  07FB                     u4761:
  2935  07FB  2FB1               	goto	l579
  2936  07FC                     u4760:
  2937  07FC  2FFD               	goto	l6182
  2938                           	
  2939  07FD                     l580:	
  2940                           	line	87
  2941                           	
  2942  07FD                     l6182:	
  2943                           ;i2c.c: 85: }
  2944                           ;i2c.c: 87: return 0;
  2945  07FD  3000               	movlw	(0)
  2946  07FE  2FFF               	goto	l584
  2947                           	
  2948  07FF                     l6184:	
  2949                           	line	88
  2950                           	
  2951  07FF                     l584:	
  2952  07FF  0008               	return
  2953                           	opt stack 0
  2954                           GLOBAL	__end_of_i2c_SendByte
  2955  0800                     	__end_of_i2c_SendByte:
  2956 ;; =============== function _i2c_SendByte ends ============
  2957                           
  2958                           	signat	_i2c_SendByte,4217
  2959                           	global	___lwtoft
  2960                           psect	text986,local,class=CODE,delta=2
  2961                           global __ptext986
  2962  0E30                     __ptext986:
  2963                           
  2964 ;; *************** function ___lwtoft *****************
  2965 ;; Defined at:
  2966 ;;		line 29 in file "c:\Program Files (x86)\HI-TECH Software\PICC\9.82\sources\lwtoft.c"
  2967 ;; Parameters:    Size  Location     Type
  2968 ;;  c               2   22[BANK0 ] unsigned int 
  2969 ;; Auto vars:     Size  Location     Type
  2970 ;;		None
  2971 ;; Return value:  Size  Location     Type
  2972 ;;                  3   22[BANK0 ] float 
  2973 ;; Registers used:
  2974 ;;		wreg, status,2, status,0, pclath, cstack
  2975 ;; Tracked objects:
  2976 ;;		On entry : 0/0
  2977 ;;		On exit  : 0/0
  2978 ;;		Unchanged: 0/0
  2979 ;; Data sizes:     COMMON   BANK0   BANK1   BANK3   BANK2
  2980 ;;      Params:         0       3       0       0       0
  2981 ;;      Locals:         0       0       0       0       0
  2982 ;;      Temps:          0       1       0       0       0
  2983 ;;      Totals:         0       4       0       0       0
  2984 ;;Total ram usage:        4 bytes
  2985 ;; Hardware stack levels used:    1
  2986 ;; Hardware stack levels required when called:    2
  2987 ;; This function calls:
  2988 ;;		___ftpack
  2989 ;; This function is called by:
  2990 ;;		_init_pic
  2991 ;;		_main
  2992 ;; This function uses a non-reentrant model
  2993 ;;
  2994                           psect	text986
  2995                           	file	"c:\Program Files (x86)\HI-TECH Software\PICC\9.82\sources\lwtoft.c"
  2996                           	line	29
  2997                           	global	__size_of___lwtoft
  2998  001B                     	__size_of___lwtoft	equ	__end_of___lwtoft-___lwtoft
  2999                           	
  3000  0E30                     ___lwtoft:	
  3001                           	opt	stack 5
  3002                           ; Regs used in ___lwtoft: [wreg+status,2+status,0+pclath+cstack]
  3003                           	line	30
  3004                           	
  3005  0E30                     l6158:	
  3006  0E30  1283               	bcf	status, 5	;RP0=0, select bank0
  3007  0E31  1303               	bcf	status, 6	;RP1=0, select bank0
  3008  0E32  0836               	movf	(___lwtoft@c),w
  3009  0E33  00A0               	movwf	(?___ftpack)
  3010  0E34  0837               	movf	(___lwtoft@c+1),w
  3011  0E35  00A1               	movwf	(?___ftpack+1)
  3012  0E36  01A2               	clrf	(?___ftpack+2)
  3013  0E37  308E               	movlw	(08Eh)
  3014  0E38  00B9               	movwf	(??___lwtoft+0)+0
  3015  0E39  0839               	movf	(??___lwtoft+0)+0,w
  3016  0E3A  00A3               	movwf	0+(?___ftpack)+03h
  3017  0E3B  01A4               	clrf	0+(?___ftpack)+04h
  3018  0E3C  120A  118A  26B9   	fcall	___ftpack
              120A  158A         
  3019  0E41  1283               	bcf	status, 5	;RP0=0, select bank0
  3020  0E42  1303               	bcf	status, 6	;RP1=0, select bank0
  3021  0E43  0820               	movf	(0+(?___ftpack)),w
  3022  0E44  00B6               	movwf	(?___lwtoft)
  3023  0E45  0821               	movf	(1+(?___ftpack)),w
  3024  0E46  00B7               	movwf	(?___lwtoft+1)
  3025  0E47  0822               	movf	(2+(?___ftpack)),w
  3026  0E48  00B8               	movwf	(?___lwtoft+2)
  3027  0E49  2E4A               	goto	l3321
  3028                           	
  3029  0E4A                     l6160:	
  3030                           	line	31
  3031                           	
  3032  0E4A                     l3321:	
  3033  0E4A  0008               	return
  3034                           	opt stack 0
  3035                           GLOBAL	__end_of___lwtoft
  3036  0E4B                     	__end_of___lwtoft:
  3037 ;; =============== function ___lwtoft ends ============
  3038                           
  3039                           	signat	___lwtoft,4219
  3040                           	global	___awtoft
  3041                           psect	text987,local,class=CODE,delta=2
  3042                           global __ptext987
  3043  0F20                     __ptext987:
  3044                           
  3045 ;; *************** function ___awtoft *****************
  3046 ;; Defined at:
  3047 ;;		line 33 in file "c:\Program Files (x86)\HI-TECH Software\PICC\9.82\sources\awtoft.c"
  3048 ;; Parameters:    Size  Location     Type
  3049 ;;  c               2   20[BANK0 ] int 
  3050 ;; Auto vars:     Size  Location     Type
  3051 ;;  sign            1   25[BANK0 ] unsigned char 
  3052 ;; Return value:  Size  Location     Type
  3053 ;;                  3   20[BANK0 ] float 
  3054 ;; Registers used:
  3055 ;;		wreg, status,2, status,0, pclath, cstack
  3056 ;; Tracked objects:
  3057 ;;		On entry : 0/0
  3058 ;;		On exit  : 0/0
  3059 ;;		Unchanged: 0/0
  3060 ;; Data sizes:     COMMON   BANK0   BANK1   BANK3   BANK2
  3061 ;;      Params:         0       3       0       0       0
  3062 ;;      Locals:         0       1       0       0       0
  3063 ;;      Temps:          0       2       0       0       0
  3064 ;;      Totals:         0       6       0       0       0
  3065 ;;Total ram usage:        6 bytes
  3066 ;; Hardware stack levels used:    1
  3067 ;; Hardware stack levels required when called:    2
  3068 ;; This function calls:
  3069 ;;		___ftpack
  3070 ;; This function is called by:
  3071 ;;		_main
  3072 ;; This function uses a non-reentrant model
  3073 ;;
  3074                           psect	text987
  3075                           	file	"c:\Program Files (x86)\HI-TECH Software\PICC\9.82\sources\awtoft.c"
  3076                           	line	33
  3077                           	global	__size_of___awtoft
  3078  002C                     	__size_of___awtoft	equ	__end_of___awtoft-___awtoft
  3079                           	
  3080  0F20                     ___awtoft:	
  3081                           	opt	stack 5
  3082                           ; Regs used in ___awtoft: [wreg+status,2+status,0+pclath+cstack]
  3083                           	line	36
  3084                           	
  3085  0F20                     l6150:	
  3086  0F20  1283               	bcf	status, 5	;RP0=0, select bank0
  3087  0F21  1303               	bcf	status, 6	;RP1=0, select bank0
  3088  0F22  01B9               	clrf	(___awtoft@sign)
  3089                           	line	37
  3090  0F23  1FB5               	btfss	(___awtoft@c+1),7
  3091  0F24  2F26               	goto	u4681
  3092  0F25  2F27               	goto	u4680
  3093  0F26                     u4681:
  3094  0F26  2F30               	goto	l6154
  3095  0F27                     u4680:
  3096                           	line	38
  3097                           	
  3098  0F27                     l6152:	
  3099  0F27  09B4               	comf	(___awtoft@c),f
  3100  0F28  09B5               	comf	(___awtoft@c+1),f
  3101  0F29  0AB4               	incf	(___awtoft@c),f
  3102  0F2A  1903               	skipnz
  3103  0F2B  0AB5               	incf	(___awtoft@c+1),f
  3104                           	line	39
  3105  0F2C  01B9               	clrf	(___awtoft@sign)
  3106  0F2D  1403               	bsf	status,0
  3107  0F2E  0DB9               	rlf	(___awtoft@sign),f
  3108  0F2F  2F30               	goto	l6154
  3109                           	line	40
  3110                           	
  3111  0F30                     l3234:	
  3112                           	line	41
  3113                           	
  3114  0F30                     l6154:	
  3115  0F30  0834               	movf	(___awtoft@c),w
  3116  0F31  00A0               	movwf	(?___ftpack)
  3117  0F32  0835               	movf	(___awtoft@c+1),w
  3118  0F33  00A1               	movwf	(?___ftpack+1)
  3119  0F34  01A2               	clrf	(?___ftpack+2)
  3120  0F35  308E               	movlw	(08Eh)
  3121  0F36  00B7               	movwf	(??___awtoft+0)+0
  3122  0F37  0837               	movf	(??___awtoft+0)+0,w
  3123  0F38  00A3               	movwf	0+(?___ftpack)+03h
  3124  0F39  0839               	movf	(___awtoft@sign),w
  3125  0F3A  00B8               	movwf	(??___awtoft+1)+0
  3126  0F3B  0838               	movf	(??___awtoft+1)+0,w
  3127  0F3C  00A4               	movwf	0+(?___ftpack)+04h
  3128  0F3D  120A  118A  26B9   	fcall	___ftpack
              120A  158A         
  3129  0F42  1283               	bcf	status, 5	;RP0=0, select bank0
  3130  0F43  1303               	bcf	status, 6	;RP1=0, select bank0
  3131  0F44  0820               	movf	(0+(?___ftpack)),w
  3132  0F45  00B4               	movwf	(?___awtoft)
  3133  0F46  0821               	movf	(1+(?___ftpack)),w
  3134  0F47  00B5               	movwf	(?___awtoft+1)
  3135  0F48  0822               	movf	(2+(?___ftpack)),w
  3136  0F49  00B6               	movwf	(?___awtoft+2)
  3137  0F4A  2F4B               	goto	l3235
  3138                           	
  3139  0F4B                     l6156:	
  3140                           	line	42
  3141                           	
  3142  0F4B                     l3235:	
  3143  0F4B  0008               	return
  3144                           	opt stack 0
  3145                           GLOBAL	__end_of___awtoft
  3146  0F4C                     	__end_of___awtoft:
  3147 ;; =============== function ___awtoft ends ============
  3148                           
  3149                           	signat	___awtoft,4219
  3150                           	global	___lbtoft
  3151                           psect	text988,local,class=CODE,delta=2
  3152                           global __ptext988
  3153  0E6A                     __ptext988:
  3154                           
  3155 ;; *************** function ___lbtoft *****************
  3156 ;; Defined at:
  3157 ;;		line 28 in file "c:\Program Files (x86)\HI-TECH Software\PICC\9.82\sources\lbtoft.c"
  3158 ;; Parameters:    Size  Location     Type
  3159 ;;  c               1    wreg     unsigned char 
  3160 ;; Auto vars:     Size  Location     Type
  3161 ;;  c               1   29[BANK0 ] unsigned char 
  3162 ;; Return value:  Size  Location     Type
  3163 ;;                  3   22[BANK0 ] float 
  3164 ;; Registers used:
  3165 ;;		wreg, status,2, status,0, pclath, cstack
  3166 ;; Tracked objects:
  3167 ;;		On entry : 0/0
  3168 ;;		On exit  : 0/0
  3169 ;;		Unchanged: 0/0
  3170 ;; Data sizes:     COMMON   BANK0   BANK1   BANK3   BANK2
  3171 ;;      Params:         0       3       0       0       0
  3172 ;;      Locals:         0       1       0       0       0
  3173 ;;      Temps:          0       4       0       0       0
  3174 ;;      Totals:         0       8       0       0       0
  3175 ;;Total ram usage:        8 bytes
  3176 ;; Hardware stack levels used:    1
  3177 ;; Hardware stack levels required when called:    2
  3178 ;; This function calls:
  3179 ;;		___ftpack
  3180 ;; This function is called by:
  3181 ;;		_main
  3182 ;; This function uses a non-reentrant model
  3183 ;;
  3184                           psect	text988
  3185                           	file	"c:\Program Files (x86)\HI-TECH Software\PICC\9.82\sources\lbtoft.c"
  3186                           	line	28
  3187                           	global	__size_of___lbtoft
  3188  0021                     	__size_of___lbtoft	equ	__end_of___lbtoft-___lbtoft
  3189                           	
  3190  0E6A                     ___lbtoft:	
  3191                           	opt	stack 5
  3192                           ; Regs used in ___lbtoft: [wreg+status,2+status,0+pclath+cstack]
  3193                           ;___lbtoft@c stored from wreg
  3194  0E6A  1283               	bcf	status, 5	;RP0=0, select bank0
  3195  0E6B  1303               	bcf	status, 6	;RP1=0, select bank0
  3196  0E6C  00BD               	movwf	(___lbtoft@c)
  3197                           	line	29
  3198                           	
  3199  0E6D                     l6146:	
  3200  0E6D  083D               	movf	(___lbtoft@c),w
  3201  0E6E  00B9               	movwf	((??___lbtoft+0)+0)
  3202  0E6F  01BA               	clrf	((??___lbtoft+0)+0+1)
  3203  0E70  01BB               	clrf	((??___lbtoft+0)+0+2)
  3204  0E71  0839               	movf	0+(??___lbtoft+0)+0,w
  3205  0E72  00A0               	movwf	(?___ftpack)
  3206  0E73  083A               	movf	1+(??___lbtoft+0)+0,w
  3207  0E74  00A1               	movwf	(?___ftpack+1)
  3208  0E75  083B               	movf	2+(??___lbtoft+0)+0,w
  3209  0E76  00A2               	movwf	(?___ftpack+2)
  3210  0E77  308E               	movlw	(08Eh)
  3211  0E78  00BC               	movwf	(??___lbtoft+3)+0
  3212  0E79  083C               	movf	(??___lbtoft+3)+0,w
  3213  0E7A  00A3               	movwf	0+(?___ftpack)+03h
  3214  0E7B  01A4               	clrf	0+(?___ftpack)+04h
  3215  0E7C  120A  118A  26B9   	fcall	___ftpack
              120A  158A         
  3216  0E81  1283               	bcf	status, 5	;RP0=0, select bank0
  3217  0E82  1303               	bcf	status, 6	;RP1=0, select bank0
  3218  0E83  0820               	movf	(0+(?___ftpack)),w
  3219  0E84  00B6               	movwf	(?___lbtoft)
  3220  0E85  0821               	movf	(1+(?___ftpack)),w
  3221  0E86  00B7               	movwf	(?___lbtoft+1)
  3222  0E87  0822               	movf	(2+(?___ftpack)),w
  3223  0E88  00B8               	movwf	(?___lbtoft+2)
  3224  0E89  2E8A               	goto	l3223
  3225                           	
  3226  0E8A                     l6148:	
  3227                           	line	30
  3228                           	
  3229  0E8A                     l3223:	
  3230  0E8A  0008               	return
  3231                           	opt stack 0
  3232                           GLOBAL	__end_of___lbtoft
  3233  0E8B                     	__end_of___lbtoft:
  3234 ;; =============== function ___lbtoft ends ============
  3235                           
  3236                           	signat	___lbtoft,4219
  3237                           	global	___ftmul
  3238                           psect	text989,local,class=CODE,delta=2
  3239                           global __ptext989
  3240  0525                     __ptext989:
  3241                           
  3242 ;; *************** function ___ftmul *****************
  3243 ;; Defined at:
  3244 ;;		line 52 in file "c:\Program Files (x86)\HI-TECH Software\PICC\9.82\sources\ftmul.c"
  3245 ;; Parameters:    Size  Location     Type
  3246 ;;  f1              3   30[BANK0 ] float 
  3247 ;;  f2              3   33[BANK0 ] float 
  3248 ;; Auto vars:     Size  Location     Type
  3249 ;;  f3_as_produc    3   41[BANK0 ] unsigned um
  3250 ;;  sign            1   45[BANK0 ] unsigned char 
  3251 ;;  cntr            1   44[BANK0 ] unsigned char 
  3252 ;;  exp             1   40[BANK0 ] unsigned char 
  3253 ;; Return value:  Size  Location     Type
  3254 ;;                  3   30[BANK0 ] float 
  3255 ;; Registers used:
  3256 ;;		wreg, status,2, status,0, pclath, cstack
  3257 ;; Tracked objects:
  3258 ;;		On entry : 0/0
  3259 ;;		On exit  : 0/0
  3260 ;;		Unchanged: 0/0
  3261 ;; Data sizes:     COMMON   BANK0   BANK1   BANK3   BANK2
  3262 ;;      Params:         0       6       0       0       0
  3263 ;;      Locals:         0       6       0       0       0
  3264 ;;      Temps:          0       4       0       0       0
  3265 ;;      Totals:         0      16       0       0       0
  3266 ;;Total ram usage:       16 bytes
  3267 ;; Hardware stack levels used:    1
  3268 ;; Hardware stack levels required when called:    2
  3269 ;; This function calls:
  3270 ;;		___ftpack
  3271 ;; This function is called by:
  3272 ;;		_init_pic
  3273 ;;		_main
  3274 ;; This function uses a non-reentrant model
  3275 ;;
  3276                           psect	text989
  3277                           	file	"c:\Program Files (x86)\HI-TECH Software\PICC\9.82\sources\ftmul.c"
  3278                           	line	52
  3279                           	global	__size_of___ftmul
  3280  00EE                     	__size_of___ftmul	equ	__end_of___ftmul-___ftmul
  3281                           	
  3282  0525                     ___ftmul:	
  3283                           	opt	stack 5
  3284                           ; Regs used in ___ftmul: [wreg+status,2+status,0+pclath+cstack]
  3285                           	line	56
  3286                           	
  3287  0525                     l6096:	
  3288  0525  1283               	bcf	status, 5	;RP0=0, select bank0
  3289  0526  1303               	bcf	status, 6	;RP1=0, select bank0
  3290  0527  083E               	movf	(___ftmul@f1),w
  3291  0528  00C4               	movwf	((??___ftmul+0)+0)
  3292  0529  083F               	movf	(___ftmul@f1+1),w
  3293  052A  00C5               	movwf	((??___ftmul+0)+0+1)
  3294  052B  0840               	movf	(___ftmul@f1+2),w
  3295  052C  00C6               	movwf	((??___ftmul+0)+0+2)
  3296  052D  1003               	clrc
  3297  052E  0D45               	rlf	(??___ftmul+0)+1,w
  3298  052F  0D46               	rlf	(??___ftmul+0)+2,w
  3299  0530  00C7               	movwf	(??___ftmul+3)+0
  3300  0531  0847               	movf	(??___ftmul+3)+0,w
  3301  0532  00C8               	movwf	(___ftmul@exp)
  3302  0533  08C8               	movf	((___ftmul@exp)),f
  3303  0534  1D03               	skipz
  3304  0535  2D37               	goto	u4541
  3305  0536  2D38               	goto	u4540
  3306  0537                     u4541:
  3307  0537  2D40               	goto	l6102
  3308  0538                     u4540:
  3309                           	line	57
  3310                           	
  3311  0538                     l6098:	
  3312  0538  3000               	movlw	0x0
  3313  0539  00BE               	movwf	(?___ftmul)
  3314  053A  3000               	movlw	0x0
  3315  053B  00BF               	movwf	(?___ftmul+1)
  3316  053C  3000               	movlw	0x0
  3317  053D  00C0               	movwf	(?___ftmul+2)
  3318  053E  2E12               	goto	l3197
  3319                           	
  3320  053F                     l6100:	
  3321  053F  2E12               	goto	l3197
  3322                           	
  3323  0540                     l3196:	
  3324                           	line	58
  3325                           	
  3326  0540                     l6102:	
  3327  0540  0841               	movf	(___ftmul@f2),w
  3328  0541  00C4               	movwf	((??___ftmul+0)+0)
  3329  0542  0842               	movf	(___ftmul@f2+1),w
  3330  0543  00C5               	movwf	((??___ftmul+0)+0+1)
  3331  0544  0843               	movf	(___ftmul@f2+2),w
  3332  0545  00C6               	movwf	((??___ftmul+0)+0+2)
  3333  0546  1003               	clrc
  3334  0547  0D45               	rlf	(??___ftmul+0)+1,w
  3335  0548  0D46               	rlf	(??___ftmul+0)+2,w
  3336  0549  00C7               	movwf	(??___ftmul+3)+0
  3337  054A  0847               	movf	(??___ftmul+3)+0,w
  3338  054B  00CD               	movwf	(___ftmul@sign)
  3339  054C  08CD               	movf	((___ftmul@sign)),f
  3340  054D  1D03               	skipz
  3341  054E  2D50               	goto	u4551
  3342  054F  2D51               	goto	u4550
  3343  0550                     u4551:
  3344  0550  2D59               	goto	l6108
  3345  0551                     u4550:
  3346                           	line	59
  3347                           	
  3348  0551                     l6104:	
  3349  0551  3000               	movlw	0x0
  3350  0552  00BE               	movwf	(?___ftmul)
  3351  0553  3000               	movlw	0x0
  3352  0554  00BF               	movwf	(?___ftmul+1)
  3353  0555  3000               	movlw	0x0
  3354  0556  00C0               	movwf	(?___ftmul+2)
  3355  0557  2E12               	goto	l3197
  3356                           	
  3357  0558                     l6106:	
  3358  0558  2E12               	goto	l3197
  3359                           	
  3360  0559                     l3198:	
  3361                           	line	60
  3362                           	
  3363  0559                     l6108:	
  3364  0559  084D               	movf	(___ftmul@sign),w
  3365  055A  3E7B               	addlw	07Bh
  3366  055B  00C4               	movwf	(??___ftmul+0)+0
  3367  055C  0844               	movf	(??___ftmul+0)+0,w
  3368  055D  07C8               	addwf	(___ftmul@exp),f
  3369                           	line	61
  3370  055E  083E               	movf	(___ftmul@f1),w
  3371  055F  00C4               	movwf	((??___ftmul+0)+0)
  3372  0560  083F               	movf	(___ftmul@f1+1),w
  3373  0561  00C5               	movwf	((??___ftmul+0)+0+1)
  3374  0562  0840               	movf	(___ftmul@f1+2),w
  3375  0563  00C6               	movwf	((??___ftmul+0)+0+2)
  3376  0564  3010               	movlw	010h
  3377  0565                     u4565:
  3378  0565  1003               	clrc
  3379  0566  0CC6               	rrf	(??___ftmul+0)+2,f
  3380  0567  0CC5               	rrf	(??___ftmul+0)+1,f
  3381  0568  0CC4               	rrf	(??___ftmul+0)+0,f
  3382  0569                     u4560:
  3383  0569  3EFF               	addlw	-1
  3384  056A  1D03               	skipz
  3385  056B  2D65               	goto	u4565
  3386  056C  0844               	movf	0+(??___ftmul+0)+0,w
  3387  056D  00C7               	movwf	(??___ftmul+3)+0
  3388  056E  0847               	movf	(??___ftmul+3)+0,w
  3389  056F  00CD               	movwf	(___ftmul@sign)
  3390                           	line	62
  3391  0570  0841               	movf	(___ftmul@f2),w
  3392  0571  00C4               	movwf	((??___ftmul+0)+0)
  3393  0572  0842               	movf	(___ftmul@f2+1),w
  3394  0573  00C5               	movwf	((??___ftmul+0)+0+1)
  3395  0574  0843               	movf	(___ftmul@f2+2),w
  3396  0575  00C6               	movwf	((??___ftmul+0)+0+2)
  3397  0576  3010               	movlw	010h
  3398  0577                     u4575:
  3399  0577  1003               	clrc
  3400  0578  0CC6               	rrf	(??___ftmul+0)+2,f
  3401  0579  0CC5               	rrf	(??___ftmul+0)+1,f
  3402  057A  0CC4               	rrf	(??___ftmul+0)+0,f
  3403  057B                     u4570:
  3404  057B  3EFF               	addlw	-1
  3405  057C  1D03               	skipz
  3406  057D  2D77               	goto	u4575
  3407  057E  0844               	movf	0+(??___ftmul+0)+0,w
  3408  057F  00C7               	movwf	(??___ftmul+3)+0
  3409  0580  0847               	movf	(??___ftmul+3)+0,w
  3410  0581  06CD               	xorwf	(___ftmul@sign),f
  3411                           	line	63
  3412  0582  3080               	movlw	(080h)
  3413  0583  00C4               	movwf	(??___ftmul+0)+0
  3414  0584  0844               	movf	(??___ftmul+0)+0,w
  3415  0585  05CD               	andwf	(___ftmul@sign),f
  3416                           	line	64
  3417                           	
  3418  0586                     l6110:	
  3419  0586  17BF               	bsf	(___ftmul@f1)+(15/8),(15)&7
  3420                           	line	66
  3421                           	
  3422  0587                     l6112:	
  3423  0587  17C2               	bsf	(___ftmul@f2)+(15/8),(15)&7
  3424                           	line	67
  3425                           	
  3426  0588                     l6114:	
  3427  0588  30FF               	movlw	0FFh
  3428  0589  05C1               	andwf	(___ftmul@f2),f
  3429  058A  30FF               	movlw	0FFh
  3430  058B  05C2               	andwf	(___ftmul@f2+1),f
  3431  058C  3000               	movlw	0
  3432  058D  05C3               	andwf	(___ftmul@f2+2),f
  3433                           	line	68
  3434                           	
  3435  058E                     l6116:	
  3436  058E  3000               	movlw	0
  3437  058F  00C9               	movwf	(___ftmul@f3_as_product)
  3438  0590  3000               	movlw	0
  3439  0591  00CA               	movwf	(___ftmul@f3_as_product+1)
  3440  0592  3000               	movlw	0
  3441  0593  00CB               	movwf	(___ftmul@f3_as_product+2)
  3442                           	line	69
  3443                           	
  3444  0594                     l6118:	
  3445  0594  3007               	movlw	(07h)
  3446  0595  00C4               	movwf	(??___ftmul+0)+0
  3447  0596  0844               	movf	(??___ftmul+0)+0,w
  3448  0597  00CC               	movwf	(___ftmul@cntr)
  3449  0598  2D99               	goto	l6120
  3450                           	line	70
  3451                           	
  3452  0599                     l3199:	
  3453                           	line	71
  3454                           	
  3455  0599                     l6120:	
  3456  0599  1C3E               	btfss	(___ftmul@f1),(0)&7
  3457  059A  2D9C               	goto	u4581
  3458  059B  2D9D               	goto	u4580
  3459  059C                     u4581:
  3460  059C  2DAE               	goto	l6124
  3461  059D                     u4580:
  3462                           	line	72
  3463                           	
  3464  059D                     l6122:	
  3465  059D  0841               	movf	(___ftmul@f2),w
  3466  059E  07C9               	addwf	(___ftmul@f3_as_product),f
  3467  059F  0842               	movf	(___ftmul@f2+1),w
  3468  05A0  1103               	clrz
  3469  05A1  1803               	skipnc
  3470  05A2  0A42               	incf	(___ftmul@f2+1),w
  3471  05A3  1903               	skipnz
  3472  05A4  2DA6               	goto	u4591
  3473  05A5  07CA               	addwf	(___ftmul@f3_as_product+1),f
  3474  05A6                     u4591:
  3475  05A6  0843               	movf	(___ftmul@f2+2),w
  3476  05A7  1103               	clrz
  3477  05A8  1803               	skipnc
  3478  05A9  0A43               	incf	(___ftmul@f2+2),w
  3479  05AA  1903               	skipnz
  3480  05AB  2DAD               	goto	u4592
  3481  05AC  07CB               	addwf	(___ftmul@f3_as_product+2),f
  3482  05AD                     u4592:
  3483                           
  3484  05AD  2DAE               	goto	l6124
  3485                           	
  3486  05AE                     l3200:	
  3487                           	line	73
  3488                           	
  3489  05AE                     l6124:	
  3490  05AE  3001               	movlw	01h
  3491  05AF                     u4605:
  3492  05AF  1003               	clrc
  3493  05B0  0CC0               	rrf	(___ftmul@f1+2),f
  3494  05B1  0CBF               	rrf	(___ftmul@f1+1),f
  3495  05B2  0CBE               	rrf	(___ftmul@f1),f
  3496  05B3  3EFF               	addlw	-1
  3497  05B4  1D03               	skipz
  3498  05B5  2DAF               	goto	u4605
  3499                           
  3500                           	line	74
  3501                           	
  3502  05B6                     l6126:	
  3503  05B6  3001               	movlw	01h
  3504  05B7                     u4615:
  3505  05B7  1003               	clrc
  3506  05B8  0DC1               	rlf	(___ftmul@f2),f
  3507  05B9  0DC2               	rlf	(___ftmul@f2+1),f
  3508  05BA  0DC3               	rlf	(___ftmul@f2+2),f
  3509  05BB  3EFF               	addlw	-1
  3510  05BC  1D03               	skipz
  3511  05BD  2DB7               	goto	u4615
  3512                           	line	75
  3513                           	
  3514  05BE                     l6128:	
  3515  05BE  3001               	movlw	low(01h)
  3516  05BF  02CC               	subwf	(___ftmul@cntr),f
  3517  05C0  1D03               	btfss	status,2
  3518  05C1  2DC3               	goto	u4621
  3519  05C2  2DC4               	goto	u4620
  3520  05C3                     u4621:
  3521  05C3  2D99               	goto	l6120
  3522  05C4                     u4620:
  3523  05C4  2DC5               	goto	l6130
  3524                           	
  3525  05C5                     l3201:	
  3526                           	line	76
  3527                           	
  3528  05C5                     l6130:	
  3529  05C5  3009               	movlw	(09h)
  3530  05C6  00C4               	movwf	(??___ftmul+0)+0
  3531  05C7  0844               	movf	(??___ftmul+0)+0,w
  3532  05C8  00CC               	movwf	(___ftmul@cntr)
  3533  05C9  2DCA               	goto	l6132
  3534                           	line	77
  3535                           	
  3536  05CA                     l3202:	
  3537                           	line	78
  3538                           	
  3539  05CA                     l6132:	
  3540  05CA  1C3E               	btfss	(___ftmul@f1),(0)&7
  3541  05CB  2DCD               	goto	u4631
  3542  05CC  2DCE               	goto	u4630
  3543  05CD                     u4631:
  3544  05CD  2DDF               	goto	l6136
  3545  05CE                     u4630:
  3546                           	line	79
  3547                           	
  3548  05CE                     l6134:	
  3549  05CE  0841               	movf	(___ftmul@f2),w
  3550  05CF  07C9               	addwf	(___ftmul@f3_as_product),f
  3551  05D0  0842               	movf	(___ftmul@f2+1),w
  3552  05D1  1103               	clrz
  3553  05D2  1803               	skipnc
  3554  05D3  0A42               	incf	(___ftmul@f2+1),w
  3555  05D4  1903               	skipnz
  3556  05D5  2DD7               	goto	u4641
  3557  05D6  07CA               	addwf	(___ftmul@f3_as_product+1),f
  3558  05D7                     u4641:
  3559  05D7  0843               	movf	(___ftmul@f2+2),w
  3560  05D8  1103               	clrz
  3561  05D9  1803               	skipnc
  3562  05DA  0A43               	incf	(___ftmul@f2+2),w
  3563  05DB  1903               	skipnz
  3564  05DC  2DDE               	goto	u4642
  3565  05DD  07CB               	addwf	(___ftmul@f3_as_product+2),f
  3566  05DE                     u4642:
  3567                           
  3568  05DE  2DDF               	goto	l6136
  3569                           	
  3570  05DF                     l3203:	
  3571                           	line	80
  3572                           	
  3573  05DF                     l6136:	
  3574  05DF  3001               	movlw	01h
  3575  05E0                     u4655:
  3576  05E0  1003               	clrc
  3577  05E1  0CC0               	rrf	(___ftmul@f1+2),f
  3578  05E2  0CBF               	rrf	(___ftmul@f1+1),f
  3579  05E3  0CBE               	rrf	(___ftmul@f1),f
  3580  05E4  3EFF               	addlw	-1
  3581  05E5  1D03               	skipz
  3582  05E6  2DE0               	goto	u4655
  3583                           
  3584                           	line	81
  3585                           	
  3586  05E7                     l6138:	
  3587  05E7  3001               	movlw	01h
  3588  05E8                     u4665:
  3589  05E8  1003               	clrc
  3590  05E9  0CCB               	rrf	(___ftmul@f3_as_product+2),f
  3591  05EA  0CCA               	rrf	(___ftmul@f3_as_product+1),f
  3592  05EB  0CC9               	rrf	(___ftmul@f3_as_product),f
  3593  05EC  3EFF               	addlw	-1
  3594  05ED  1D03               	skipz
  3595  05EE  2DE8               	goto	u4665
  3596                           
  3597                           	line	82
  3598                           	
  3599  05EF                     l6140:	
  3600  05EF  3001               	movlw	low(01h)
  3601  05F0  02CC               	subwf	(___ftmul@cntr),f
  3602  05F1  1D03               	btfss	status,2
  3603  05F2  2DF4               	goto	u4671
  3604  05F3  2DF5               	goto	u4670
  3605  05F4                     u4671:
  3606  05F4  2DCA               	goto	l6132
  3607  05F5                     u4670:
  3608  05F5  2DF6               	goto	l6142
  3609                           	
  3610  05F6                     l3204:	
  3611                           	line	83
  3612                           	
  3613  05F6                     l6142:	
  3614  05F6  0849               	movf	(___ftmul@f3_as_product),w
  3615  05F7  00A0               	movwf	(?___ftpack)
  3616  05F8  084A               	movf	(___ftmul@f3_as_product+1),w
  3617  05F9  00A1               	movwf	(?___ftpack+1)
  3618  05FA  084B               	movf	(___ftmul@f3_as_product+2),w
  3619  05FB  00A2               	movwf	(?___ftpack+2)
  3620  05FC  0848               	movf	(___ftmul@exp),w
  3621  05FD  00C4               	movwf	(??___ftmul+0)+0
  3622  05FE  0844               	movf	(??___ftmul+0)+0,w
  3623  05FF  00A3               	movwf	0+(?___ftpack)+03h
  3624  0600  084D               	movf	(___ftmul@sign),w
  3625  0601  00C5               	movwf	(??___ftmul+1)+0
  3626  0602  0845               	movf	(??___ftmul+1)+0,w
  3627  0603  00A4               	movwf	0+(?___ftpack)+04h
  3628  0604  120A  118A  26B9   	fcall	___ftpack
              120A  118A         
  3629  0609  1283               	bcf	status, 5	;RP0=0, select bank0
  3630  060A  1303               	bcf	status, 6	;RP1=0, select bank0
  3631  060B  0820               	movf	(0+(?___ftpack)),w
  3632  060C  00BE               	movwf	(?___ftmul)
  3633  060D  0821               	movf	(1+(?___ftpack)),w
  3634  060E  00BF               	movwf	(?___ftmul+1)
  3635  060F  0822               	movf	(2+(?___ftpack)),w
  3636  0610  00C0               	movwf	(?___ftmul+2)
  3637  0611  2E12               	goto	l3197
  3638                           	
  3639  0612                     l6144:	
  3640                           	line	84
  3641                           	
  3642  0612                     l3197:	
  3643  0612  0008               	return
  3644                           	opt stack 0
  3645                           GLOBAL	__end_of___ftmul
  3646  0613                     	__end_of___ftmul:
  3647 ;; =============== function ___ftmul ends ============
  3648                           
  3649                           	signat	___ftmul,8315
  3650                           	global	___ftadd
  3651                           psect	text990,local,class=CODE,delta=2
  3652                           global __ptext990
  3653  010C                     __ptext990:
  3654                           
  3655 ;; *************** function ___ftadd *****************
  3656 ;; Defined at:
  3657 ;;		line 87 in file "c:\Program Files (x86)\HI-TECH Software\PICC\9.82\sources\ftadd.c"
  3658 ;; Parameters:    Size  Location     Type
  3659 ;;  f1              3   46[BANK0 ] float 
  3660 ;;  f2              3   49[BANK0 ] float 
  3661 ;; Auto vars:     Size  Location     Type
  3662 ;;  exp1            1    2[BANK1 ] unsigned char 
  3663 ;;  exp2            1    1[BANK1 ] unsigned char 
  3664 ;;  sign            1    0[BANK1 ] unsigned char 
  3665 ;; Return value:  Size  Location     Type
  3666 ;;                  3   46[BANK0 ] float 
  3667 ;; Registers used:
  3668 ;;		wreg, status,2, status,0, pclath, cstack
  3669 ;; Tracked objects:
  3670 ;;		On entry : 0/0
  3671 ;;		On exit  : 0/0
  3672 ;;		Unchanged: 0/0
  3673 ;; Data sizes:     COMMON   BANK0   BANK1   BANK3   BANK2
  3674 ;;      Params:         0       6       0       0       0
  3675 ;;      Locals:         0       0       3       0       0
  3676 ;;      Temps:          0       4       0       0       0
  3677 ;;      Totals:         0      10       3       0       0
  3678 ;;Total ram usage:       13 bytes
  3679 ;; Hardware stack levels used:    1
  3680 ;; Hardware stack levels required when called:    2
  3681 ;; This function calls:
  3682 ;;		___ftpack
  3683 ;; This function is called by:
  3684 ;;		_main
  3685 ;;		___ftsub
  3686 ;; This function uses a non-reentrant model
  3687 ;;
  3688                           psect	text990
  3689                           	file	"c:\Program Files (x86)\HI-TECH Software\PICC\9.82\sources\ftadd.c"
  3690                           	line	87
  3691                           	global	__size_of___ftadd
  3692  0185                     	__size_of___ftadd	equ	__end_of___ftadd-___ftadd
  3693                           	
  3694  010C                     ___ftadd:	
  3695                           	opt	stack 5
  3696                           ; Regs used in ___ftadd: [wreg+status,2+status,0+pclath+cstack]
  3697                           	line	90
  3698                           	
  3699  010C                     l6026:	
  3700  010C  1283               	bcf	status, 5	;RP0=0, select bank0
  3701  010D  1303               	bcf	status, 6	;RP1=0, select bank0
  3702  010E  084E               	movf	(___ftadd@f1),w
  3703  010F  00D4               	movwf	((??___ftadd+0)+0)
  3704  0110  084F               	movf	(___ftadd@f1+1),w
  3705  0111  00D5               	movwf	((??___ftadd+0)+0+1)
  3706  0112  0850               	movf	(___ftadd@f1+2),w
  3707  0113  00D6               	movwf	((??___ftadd+0)+0+2)
  3708  0114  1003               	clrc
  3709  0115  0D55               	rlf	(??___ftadd+0)+1,w
  3710  0116  0D56               	rlf	(??___ftadd+0)+2,w
  3711  0117  00D7               	movwf	(??___ftadd+3)+0
  3712  0118  0857               	movf	(??___ftadd+3)+0,w
  3713  0119  1683               	bsf	status, 5	;RP0=1, select bank1
  3714  011A  1303               	bcf	status, 6	;RP1=0, select bank1
  3715  011B  00B2               	movwf	(___ftadd@exp1)^080h
  3716                           	line	91
  3717  011C  1283               	bcf	status, 5	;RP0=0, select bank0
  3718  011D  1303               	bcf	status, 6	;RP1=0, select bank0
  3719  011E  0851               	movf	(___ftadd@f2),w
  3720  011F  00D4               	movwf	((??___ftadd+0)+0)
  3721  0120  0852               	movf	(___ftadd@f2+1),w
  3722  0121  00D5               	movwf	((??___ftadd+0)+0+1)
  3723  0122  0853               	movf	(___ftadd@f2+2),w
  3724  0123  00D6               	movwf	((??___ftadd+0)+0+2)
  3725  0124  1003               	clrc
  3726  0125  0D55               	rlf	(??___ftadd+0)+1,w
  3727  0126  0D56               	rlf	(??___ftadd+0)+2,w
  3728  0127  00D7               	movwf	(??___ftadd+3)+0
  3729  0128  0857               	movf	(??___ftadd+3)+0,w
  3730  0129  1683               	bsf	status, 5	;RP0=1, select bank1
  3731  012A  1303               	bcf	status, 6	;RP1=0, select bank1
  3732  012B  00B1               	movwf	(___ftadd@exp2)^080h
  3733                           	line	92
  3734                           	
  3735  012C                     l6028:	
  3736  012C  0832               	movf	(___ftadd@exp1)^080h,w
  3737  012D  1D03               	skipz
  3738  012E  2930               	goto	u4300
  3739  012F  2943               	goto	l6034
  3740  0130                     u4300:
  3741                           	
  3742  0130                     l6030:	
  3743  0130  0831               	movf	(___ftadd@exp2)^080h,w
  3744  0131  0232               	subwf	(___ftadd@exp1)^080h,w
  3745  0132  1803               	skipnc
  3746  0133  2935               	goto	u4311
  3747  0134  2936               	goto	u4310
  3748  0135                     u4311:
  3749  0135  294C               	goto	l6038
  3750  0136                     u4310:
  3751                           	
  3752  0136                     l6032:	
  3753  0136  0332               	decf	(___ftadd@exp1)^080h,w
  3754  0137  3AFF               	xorlw	0ffh
  3755  0138  0731               	addwf	(___ftadd@exp2)^080h,w
  3756  0139  1283               	bcf	status, 5	;RP0=0, select bank0
  3757  013A  1303               	bcf	status, 6	;RP1=0, select bank0
  3758  013B  00D4               	movwf	(??___ftadd+0)+0
  3759  013C  3019               	movlw	(019h)
  3760  013D  0254               	subwf	0+(??___ftadd+0)+0,w
  3761  013E  1C03               	skipc
  3762  013F  2941               	goto	u4321
  3763  0140  2942               	goto	u4320
  3764  0141                     u4321:
  3765  0141  294C               	goto	l6038
  3766  0142                     u4320:
  3767  0142  2943               	goto	l6034
  3768                           	
  3769  0143                     l3144:	
  3770                           	line	93
  3771                           	
  3772  0143                     l6034:	
  3773  0143  1283               	bcf	status, 5	;RP0=0, select bank0
  3774  0144  0851               	movf	(___ftadd@f2),w
  3775  0145  00CE               	movwf	(?___ftadd)
  3776  0146  0852               	movf	(___ftadd@f2+1),w
  3777  0147  00CF               	movwf	(?___ftadd+1)
  3778  0148  0853               	movf	(___ftadd@f2+2),w
  3779  0149  00D0               	movwf	(?___ftadd+2)
  3780  014A  2A90               	goto	l3145
  3781                           	
  3782  014B                     l6036:	
  3783  014B  2A90               	goto	l3145
  3784                           	
  3785  014C                     l3142:	
  3786                           	line	94
  3787                           	
  3788  014C                     l6038:	
  3789  014C  1683               	bsf	status, 5	;RP0=1, select bank1
  3790  014D  1303               	bcf	status, 6	;RP1=0, select bank1
  3791  014E  0831               	movf	(___ftadd@exp2)^080h,w
  3792  014F  1D03               	skipz
  3793  0150  2952               	goto	u4330
  3794  0151  2964               	goto	l3148
  3795  0152                     u4330:
  3796                           	
  3797  0152                     l6040:	
  3798  0152  0832               	movf	(___ftadd@exp1)^080h,w
  3799  0153  0231               	subwf	(___ftadd@exp2)^080h,w
  3800  0154  1803               	skipnc
  3801  0155  2957               	goto	u4341
  3802  0156  2958               	goto	u4340
  3803  0157                     u4341:
  3804  0157  2965               	goto	l6044
  3805  0158                     u4340:
  3806                           	
  3807  0158                     l6042:	
  3808  0158  0331               	decf	(___ftadd@exp2)^080h,w
  3809  0159  3AFF               	xorlw	0ffh
  3810  015A  0732               	addwf	(___ftadd@exp1)^080h,w
  3811  015B  1283               	bcf	status, 5	;RP0=0, select bank0
  3812  015C  1303               	bcf	status, 6	;RP1=0, select bank0
  3813  015D  00D4               	movwf	(??___ftadd+0)+0
  3814  015E  3019               	movlw	(019h)
  3815  015F  0254               	subwf	0+(??___ftadd+0)+0,w
  3816  0160  1C03               	skipc
  3817  0161  2963               	goto	u4351
  3818  0162  2964               	goto	u4350
  3819  0163                     u4351:
  3820  0163  2965               	goto	l6044
  3821  0164                     u4350:
  3822                           	
  3823  0164                     l3148:	
  3824                           	line	95
  3825  0164  2A90               	goto	l3145
  3826                           	
  3827  0165                     l3146:	
  3828                           	line	96
  3829                           	
  3830  0165                     l6044:	
  3831  0165  3006               	movlw	(06h)
  3832  0166  1283               	bcf	status, 5	;RP0=0, select bank0
  3833  0167  00D4               	movwf	(??___ftadd+0)+0
  3834  0168  0854               	movf	(??___ftadd+0)+0,w
  3835  0169  1683               	bsf	status, 5	;RP0=1, select bank1
  3836  016A  1303               	bcf	status, 6	;RP1=0, select bank1
  3837  016B  00B0               	movwf	(___ftadd@sign)^080h
  3838                           	line	97
  3839                           	
  3840  016C                     l6046:	
  3841  016C  1283               	bcf	status, 5	;RP0=0, select bank0
  3842  016D  1303               	bcf	status, 6	;RP1=0, select bank0
  3843  016E  1FD0               	btfss	(___ftadd@f1+2),(23)&7
  3844  016F  2971               	goto	u4361
  3845  0170  2972               	goto	u4360
  3846  0171                     u4361:
  3847  0171  2975               	goto	l3149
  3848  0172                     u4360:
  3849                           	line	98
  3850                           	
  3851  0172                     l6048:	
  3852  0172  1683               	bsf	status, 5	;RP0=1, select bank1
  3853  0173  1303               	bcf	status, 6	;RP1=0, select bank1
  3854  0174  17B0               	bsf	(___ftadd@sign)^080h+(7/8),(7)&7
  3855                           	
  3856  0175                     l3149:	
  3857                           	line	99
  3858  0175  1283               	bcf	status, 5	;RP0=0, select bank0
  3859  0176  1FD3               	btfss	(___ftadd@f2+2),(23)&7
  3860  0177  2979               	goto	u4371
  3861  0178  297A               	goto	u4370
  3862  0179                     u4371:
  3863  0179  297D               	goto	l3150
  3864  017A                     u4370:
  3865                           	line	100
  3866                           	
  3867  017A                     l6050:	
  3868  017A  1683               	bsf	status, 5	;RP0=1, select bank1
  3869  017B  1303               	bcf	status, 6	;RP1=0, select bank1
  3870  017C  1730               	bsf	(___ftadd@sign)^080h+(6/8),(6)&7
  3871                           	
  3872  017D                     l3150:	
  3873                           	line	101
  3874  017D  1283               	bcf	status, 5	;RP0=0, select bank0
  3875  017E  17CF               	bsf	(___ftadd@f1)+(15/8),(15)&7
  3876                           	line	102
  3877                           	
  3878  017F                     l6052:	
  3879  017F  30FF               	movlw	0FFh
  3880  0180  05CE               	andwf	(___ftadd@f1),f
  3881  0181  30FF               	movlw	0FFh
  3882  0182  05CF               	andwf	(___ftadd@f1+1),f
  3883  0183  3000               	movlw	0
  3884  0184  05D0               	andwf	(___ftadd@f1+2),f
  3885                           	line	103
  3886                           	
  3887  0185                     l6054:	
  3888  0185  17D2               	bsf	(___ftadd@f2)+(15/8),(15)&7
  3889                           	line	104
  3890  0186  30FF               	movlw	0FFh
  3891  0187  05D1               	andwf	(___ftadd@f2),f
  3892  0188  30FF               	movlw	0FFh
  3893  0189  05D2               	andwf	(___ftadd@f2+1),f
  3894  018A  3000               	movlw	0
  3895  018B  05D3               	andwf	(___ftadd@f2+2),f
  3896                           	line	106
  3897  018C  1683               	bsf	status, 5	;RP0=1, select bank1
  3898  018D  1303               	bcf	status, 6	;RP1=0, select bank1
  3899  018E  0831               	movf	(___ftadd@exp2)^080h,w
  3900  018F  0232               	subwf	(___ftadd@exp1)^080h,w
  3901  0190  1803               	skipnc
  3902  0191  2993               	goto	u4381
  3903  0192  2994               	goto	u4380
  3904  0193                     u4381:
  3905  0193  29CD               	goto	l6066
  3906  0194                     u4380:
  3907  0194  2995               	goto	l6056
  3908                           	line	109
  3909                           	
  3910  0195                     l3152:	
  3911                           	line	110
  3912                           	
  3913  0195                     l6056:	
  3914  0195  3001               	movlw	01h
  3915  0196                     u4395:
  3916  0196  1003               	clrc
  3917  0197  1283               	bcf	status, 5	;RP0=0, select bank0
  3918  0198  1303               	bcf	status, 6	;RP1=0, select bank0
  3919  0199  0DD1               	rlf	(___ftadd@f2),f
  3920  019A  0DD2               	rlf	(___ftadd@f2+1),f
  3921  019B  0DD3               	rlf	(___ftadd@f2+2),f
  3922  019C  3EFF               	addlw	-1
  3923  019D  1D03               	skipz
  3924  019E  2996               	goto	u4395
  3925                           	line	111
  3926  019F  3001               	movlw	low(01h)
  3927  01A0  1683               	bsf	status, 5	;RP0=1, select bank1
  3928  01A1  1303               	bcf	status, 6	;RP1=0, select bank1
  3929  01A2  02B1               	subwf	(___ftadd@exp2)^080h,f
  3930                           	line	112
  3931                           	
  3932  01A3                     l6058:	
  3933  01A3  0831               	movf	(___ftadd@exp2)^080h,w
  3934  01A4  0632               	xorwf	(___ftadd@exp1)^080h,w
  3935  01A5  1903               	skipnz
  3936  01A6  29A8               	goto	u4401
  3937  01A7  29A9               	goto	u4400
  3938  01A8                     u4401:
  3939  01A8  29C5               	goto	l6064
  3940  01A9                     u4400:
  3941                           	
  3942  01A9                     l6060:	
  3943  01A9  3001               	movlw	low(01h)
  3944  01AA  02B0               	subwf	(___ftadd@sign)^080h,f
  3945  01AB  0830               	movf	((___ftadd@sign)^080h),w
  3946  01AC  3907               	andlw	07h
  3947  01AD  1D03               	btfss	status,2
  3948  01AE  29B0               	goto	u4411
  3949  01AF  29B1               	goto	u4410
  3950  01B0                     u4411:
  3951  01B0  2995               	goto	l6056
  3952  01B1                     u4410:
  3953  01B1  29C5               	goto	l6064
  3954                           	
  3955  01B2                     l3154:	
  3956  01B2  29C5               	goto	l6064
  3957                           	
  3958  01B3                     l3155:	
  3959                           	line	113
  3960  01B3  29C5               	goto	l6064
  3961                           	
  3962  01B4                     l3157:	
  3963                           	line	114
  3964                           	
  3965  01B4                     l6062:	
  3966  01B4  3001               	movlw	01h
  3967  01B5                     u4425:
  3968  01B5  1003               	clrc
  3969  01B6  1283               	bcf	status, 5	;RP0=0, select bank0
  3970  01B7  1303               	bcf	status, 6	;RP1=0, select bank0
  3971  01B8  0CD0               	rrf	(___ftadd@f1+2),f
  3972  01B9  0CCF               	rrf	(___ftadd@f1+1),f
  3973  01BA  0CCE               	rrf	(___ftadd@f1),f
  3974  01BB  3EFF               	addlw	-1
  3975  01BC  1D03               	skipz
  3976  01BD  29B5               	goto	u4425
  3977                           
  3978                           	line	115
  3979  01BE  3001               	movlw	(01h)
  3980  01BF  00D4               	movwf	(??___ftadd+0)+0
  3981  01C0  0854               	movf	(??___ftadd+0)+0,w
  3982  01C1  1683               	bsf	status, 5	;RP0=1, select bank1
  3983  01C2  1303               	bcf	status, 6	;RP1=0, select bank1
  3984  01C3  07B2               	addwf	(___ftadd@exp1)^080h,f
  3985  01C4  29C5               	goto	l6064
  3986                           	line	116
  3987                           	
  3988  01C5                     l3156:	
  3989                           	line	113
  3990                           	
  3991  01C5                     l6064:	
  3992  01C5  0832               	movf	(___ftadd@exp1)^080h,w
  3993  01C6  0631               	xorwf	(___ftadd@exp2)^080h,w
  3994  01C7  1D03               	skipz
  3995  01C8  29CA               	goto	u4431
  3996  01C9  29CB               	goto	u4430
  3997  01CA                     u4431:
  3998  01CA  29B4               	goto	l6062
  3999  01CB                     u4430:
  4000  01CB  2A0C               	goto	l3159
  4001                           	
  4002  01CC                     l3158:	
  4003                           	line	117
  4004  01CC  2A0C               	goto	l3159
  4005                           	
  4006  01CD                     l3151:	
  4007                           	
  4008  01CD                     l6066:	
  4009  01CD  0832               	movf	(___ftadd@exp1)^080h,w
  4010  01CE  0231               	subwf	(___ftadd@exp2)^080h,w
  4011  01CF  1803               	skipnc
  4012  01D0  29D2               	goto	u4441
  4013  01D1  29D3               	goto	u4440
  4014  01D2                     u4441:
  4015  01D2  2A0C               	goto	l3159
  4016  01D3                     u4440:
  4017  01D3  29D4               	goto	l6068
  4018                           	line	120
  4019                           	
  4020  01D4                     l3161:	
  4021                           	line	121
  4022                           	
  4023  01D4                     l6068:	
  4024  01D4  3001               	movlw	01h
  4025  01D5                     u4455:
  4026  01D5  1003               	clrc
  4027  01D6  1283               	bcf	status, 5	;RP0=0, select bank0
  4028  01D7  1303               	bcf	status, 6	;RP1=0, select bank0
  4029  01D8  0DCE               	rlf	(___ftadd@f1),f
  4030  01D9  0DCF               	rlf	(___ftadd@f1+1),f
  4031  01DA  0DD0               	rlf	(___ftadd@f1+2),f
  4032  01DB  3EFF               	addlw	-1
  4033  01DC  1D03               	skipz
  4034  01DD  29D5               	goto	u4455
  4035                           	line	122
  4036  01DE  3001               	movlw	low(01h)
  4037  01DF  1683               	bsf	status, 5	;RP0=1, select bank1
  4038  01E0  1303               	bcf	status, 6	;RP1=0, select bank1
  4039  01E1  02B2               	subwf	(___ftadd@exp1)^080h,f
  4040                           	line	123
  4041                           	
  4042  01E2                     l6070:	
  4043  01E2  0831               	movf	(___ftadd@exp2)^080h,w
  4044  01E3  0632               	xorwf	(___ftadd@exp1)^080h,w
  4045  01E4  1903               	skipnz
  4046  01E5  29E7               	goto	u4461
  4047  01E6  29E8               	goto	u4460
  4048  01E7                     u4461:
  4049  01E7  2A04               	goto	l6076
  4050  01E8                     u4460:
  4051                           	
  4052  01E8                     l6072:	
  4053  01E8  3001               	movlw	low(01h)
  4054  01E9  02B0               	subwf	(___ftadd@sign)^080h,f
  4055  01EA  0830               	movf	((___ftadd@sign)^080h),w
  4056  01EB  3907               	andlw	07h
  4057  01EC  1D03               	btfss	status,2
  4058  01ED  29EF               	goto	u4471
  4059  01EE  29F0               	goto	u4470
  4060  01EF                     u4471:
  4061  01EF  29D4               	goto	l6068
  4062  01F0                     u4470:
  4063  01F0  2A04               	goto	l6076
  4064                           	
  4065  01F1                     l3163:	
  4066  01F1  2A04               	goto	l6076
  4067                           	
  4068  01F2                     l3164:	
  4069                           	line	124
  4070  01F2  2A04               	goto	l6076
  4071                           	
  4072  01F3                     l3166:	
  4073                           	line	125
  4074                           	
  4075  01F3                     l6074:	
  4076  01F3  3001               	movlw	01h
  4077  01F4                     u4485:
  4078  01F4  1003               	clrc
  4079  01F5  1283               	bcf	status, 5	;RP0=0, select bank0
  4080  01F6  1303               	bcf	status, 6	;RP1=0, select bank0
  4081  01F7  0CD3               	rrf	(___ftadd@f2+2),f
  4082  01F8  0CD2               	rrf	(___ftadd@f2+1),f
  4083  01F9  0CD1               	rrf	(___ftadd@f2),f
  4084  01FA  3EFF               	addlw	-1
  4085  01FB  1D03               	skipz
  4086  01FC  29F4               	goto	u4485
  4087                           
  4088                           	line	126
  4089  01FD  3001               	movlw	(01h)
  4090  01FE  00D4               	movwf	(??___ftadd+0)+0
  4091  01FF  0854               	movf	(??___ftadd+0)+0,w
  4092  0200  1683               	bsf	status, 5	;RP0=1, select bank1
  4093  0201  1303               	bcf	status, 6	;RP1=0, select bank1
  4094  0202  07B1               	addwf	(___ftadd@exp2)^080h,f
  4095  0203  2A04               	goto	l6076
  4096                           	line	127
  4097                           	
  4098  0204                     l3165:	
  4099                           	line	124
  4100                           	
  4101  0204                     l6076:	
  4102  0204  0832               	movf	(___ftadd@exp1)^080h,w
  4103  0205  0631               	xorwf	(___ftadd@exp2)^080h,w
  4104  0206  1D03               	skipz
  4105  0207  2A09               	goto	u4491
  4106  0208  2A0A               	goto	u4490
  4107  0209                     u4491:
  4108  0209  29F3               	goto	l6074
  4109  020A                     u4490:
  4110  020A  2A0C               	goto	l3159
  4111                           	
  4112  020B                     l3167:	
  4113  020B  2A0C               	goto	l3159
  4114                           	line	128
  4115                           	
  4116  020C                     l3160:	
  4117                           	line	129
  4118                           	
  4119  020C                     l3159:	
  4120  020C  1FB0               	btfss	(___ftadd@sign)^080h,(7)&7
  4121  020D  2A0F               	goto	u4501
  4122  020E  2A10               	goto	u4500
  4123  020F                     u4501:
  4124  020F  2A23               	goto	l6080
  4125  0210                     u4500:
  4126                           	line	131
  4127                           	
  4128  0210                     l6078:	
  4129  0210  30FF               	movlw	0FFh
  4130  0211  1283               	bcf	status, 5	;RP0=0, select bank0
  4131  0212  1303               	bcf	status, 6	;RP1=0, select bank0
  4132  0213  06CE               	xorwf	(___ftadd@f1),f
  4133  0214  30FF               	movlw	0FFh
  4134  0215  06CF               	xorwf	(___ftadd@f1+1),f
  4135  0216  30FF               	movlw	0FFh
  4136  0217  06D0               	xorwf	(___ftadd@f1+2),f
  4137                           	line	132
  4138  0218  3001               	movlw	01h
  4139  0219  07CE               	addwf	(___ftadd@f1),f
  4140  021A  3000               	movlw	0
  4141  021B  1803               	skipnc
  4142  021C  3001               movlw 1
  4143  021D  07CF               	addwf	(___ftadd@f1+1),f
  4144  021E  3000               	movlw	0
  4145  021F  1803               	skipnc
  4146  0220  3001               movlw 1
  4147  0221  07D0               	addwf	(___ftadd@f1+2),f
  4148  0222  2A23               	goto	l6080
  4149                           	line	133
  4150                           	
  4151  0223                     l3168:	
  4152                           	line	134
  4153                           	
  4154  0223                     l6080:	
  4155  0223  1683               	bsf	status, 5	;RP0=1, select bank1
  4156  0224  1303               	bcf	status, 6	;RP1=0, select bank1
  4157  0225  1F30               	btfss	(___ftadd@sign)^080h,(6)&7
  4158  0226  2A28               	goto	u4511
  4159  0227  2A29               	goto	u4510
  4160  0228                     u4511:
  4161  0228  2A3C               	goto	l6084
  4162  0229                     u4510:
  4163                           	line	136
  4164                           	
  4165  0229                     l6082:	
  4166  0229  30FF               	movlw	0FFh
  4167  022A  1283               	bcf	status, 5	;RP0=0, select bank0
  4168  022B  1303               	bcf	status, 6	;RP1=0, select bank0
  4169  022C  06D1               	xorwf	(___ftadd@f2),f
  4170  022D  30FF               	movlw	0FFh
  4171  022E  06D2               	xorwf	(___ftadd@f2+1),f
  4172  022F  30FF               	movlw	0FFh
  4173  0230  06D3               	xorwf	(___ftadd@f2+2),f
  4174                           	line	137
  4175  0231  3001               	movlw	01h
  4176  0232  07D1               	addwf	(___ftadd@f2),f
  4177  0233  3000               	movlw	0
  4178  0234  1803               	skipnc
  4179  0235  3001               movlw 1
  4180  0236  07D2               	addwf	(___ftadd@f2+1),f
  4181  0237  3000               	movlw	0
  4182  0238  1803               	skipnc
  4183  0239  3001               movlw 1
  4184  023A  07D3               	addwf	(___ftadd@f2+2),f
  4185  023B  2A3C               	goto	l6084
  4186                           	line	138
  4187                           	
  4188  023C                     l3169:	
  4189                           	line	139
  4190                           	
  4191  023C                     l6084:	
  4192  023C  1683               	bsf	status, 5	;RP0=1, select bank1
  4193  023D  1303               	bcf	status, 6	;RP1=0, select bank1
  4194  023E  01B0               	clrf	(___ftadd@sign)^080h
  4195                           	line	140
  4196  023F  1283               	bcf	status, 5	;RP0=0, select bank0
  4197  0240  1303               	bcf	status, 6	;RP1=0, select bank0
  4198  0241  084E               	movf	(___ftadd@f1),w
  4199  0242  07D1               	addwf	(___ftadd@f2),f
  4200  0243  084F               	movf	(___ftadd@f1+1),w
  4201  0244  1103               	clrz
  4202  0245  1803               	skipnc
  4203  0246  0A4F               	incf	(___ftadd@f1+1),w
  4204  0247  1903               	skipnz
  4205  0248  2A4A               	goto	u4521
  4206  0249  07D2               	addwf	(___ftadd@f2+1),f
  4207  024A                     u4521:
  4208  024A  0850               	movf	(___ftadd@f1+2),w
  4209  024B  1103               	clrz
  4210  024C  1803               	skipnc
  4211  024D  0A50               	incf	(___ftadd@f1+2),w
  4212  024E  1903               	skipnz
  4213  024F  2A51               	goto	u4522
  4214  0250  07D3               	addwf	(___ftadd@f2+2),f
  4215  0251                     u4522:
  4216                           
  4217                           	line	141
  4218                           	
  4219  0251                     l6086:	
  4220  0251  1FD3               	btfss	(___ftadd@f2+2),(23)&7
  4221  0252  2A54               	goto	u4531
  4222  0253  2A55               	goto	u4530
  4223  0254                     u4531:
  4224  0254  2A6B               	goto	l6092
  4225  0255                     u4530:
  4226                           	line	142
  4227                           	
  4228  0255                     l6088:	
  4229  0255  30FF               	movlw	0FFh
  4230  0256  06D1               	xorwf	(___ftadd@f2),f
  4231  0257  30FF               	movlw	0FFh
  4232  0258  06D2               	xorwf	(___ftadd@f2+1),f
  4233  0259  30FF               	movlw	0FFh
  4234  025A  06D3               	xorwf	(___ftadd@f2+2),f
  4235                           	line	143
  4236  025B  3001               	movlw	01h
  4237  025C  07D1               	addwf	(___ftadd@f2),f
  4238  025D  3000               	movlw	0
  4239  025E  1803               	skipnc
  4240  025F  3001               movlw 1
  4241  0260  07D2               	addwf	(___ftadd@f2+1),f
  4242  0261  3000               	movlw	0
  4243  0262  1803               	skipnc
  4244  0263  3001               movlw 1
  4245  0264  07D3               	addwf	(___ftadd@f2+2),f
  4246                           	line	144
  4247                           	
  4248  0265                     l6090:	
  4249  0265  1683               	bsf	status, 5	;RP0=1, select bank1
  4250  0266  1303               	bcf	status, 6	;RP1=0, select bank1
  4251  0267  01B0               	clrf	(___ftadd@sign)^080h
  4252  0268  1403               	bsf	status,0
  4253  0269  0DB0               	rlf	(___ftadd@sign)^080h,f
  4254  026A  2A6B               	goto	l6092
  4255                           	line	145
  4256                           	
  4257  026B                     l3170:	
  4258                           	line	146
  4259                           	
  4260  026B                     l6092:	
  4261  026B  1283               	bcf	status, 5	;RP0=0, select bank0
  4262  026C  0851               	movf	(___ftadd@f2),w
  4263  026D  00A0               	movwf	(?___ftpack)
  4264  026E  0852               	movf	(___ftadd@f2+1),w
  4265  026F  00A1               	movwf	(?___ftpack+1)
  4266  0270  0853               	movf	(___ftadd@f2+2),w
  4267  0271  00A2               	movwf	(?___ftpack+2)
  4268  0272  1683               	bsf	status, 5	;RP0=1, select bank1
  4269  0273  1303               	bcf	status, 6	;RP1=0, select bank1
  4270  0274  0832               	movf	(___ftadd@exp1)^080h,w
  4271  0275  1283               	bcf	status, 5	;RP0=0, select bank0
  4272  0276  1303               	bcf	status, 6	;RP1=0, select bank0
  4273  0277  00D4               	movwf	(??___ftadd+0)+0
  4274  0278  0854               	movf	(??___ftadd+0)+0,w
  4275  0279  00A3               	movwf	0+(?___ftpack)+03h
  4276  027A  1683               	bsf	status, 5	;RP0=1, select bank1
  4277  027B  1303               	bcf	status, 6	;RP1=0, select bank1
  4278  027C  0830               	movf	(___ftadd@sign)^080h,w
  4279  027D  1283               	bcf	status, 5	;RP0=0, select bank0
  4280  027E  1303               	bcf	status, 6	;RP1=0, select bank0
  4281  027F  00D5               	movwf	(??___ftadd+1)+0
  4282  0280  0855               	movf	(??___ftadd+1)+0,w
  4283  0281  00A4               	movwf	0+(?___ftpack)+04h
  4284  0282  120A  118A  26B9   	fcall	___ftpack
              120A  118A         
  4285  0287  1283               	bcf	status, 5	;RP0=0, select bank0
  4286  0288  1303               	bcf	status, 6	;RP1=0, select bank0
  4287  0289  0820               	movf	(0+(?___ftpack)),w
  4288  028A  00CE               	movwf	(?___ftadd)
  4289  028B  0821               	movf	(1+(?___ftpack)),w
  4290  028C  00CF               	movwf	(?___ftadd+1)
  4291  028D  0822               	movf	(2+(?___ftpack)),w
  4292  028E  00D0               	movwf	(?___ftadd+2)
  4293  028F  2A90               	goto	l3145
  4294                           	
  4295  0290                     l6094:	
  4296                           	line	148
  4297                           	
  4298  0290                     l3145:	
  4299  0290  0008               	return
  4300                           	opt stack 0
  4301                           GLOBAL	__end_of___ftadd
  4302  0291                     	__end_of___ftadd:
  4303 ;; =============== function ___ftadd ends ============
  4304                           
  4305                           	signat	___ftadd,8315
  4306                           	global	_fabs
  4307                           psect	text991,local,class=CODE,delta=2
  4308                           global __ptext991
  4309  0F4C                     __ptext991:
  4310                           
  4311 ;; *************** function _fabs *****************
  4312 ;; Defined at:
  4313 ;;		line 5 in file "c:\Program Files (x86)\HI-TECH Software\PICC\9.82\sources\fabs.c"
  4314 ;; Parameters:    Size  Location     Type
  4315 ;;  d               3   26[BANK0 ] float 
  4316 ;; Auto vars:     Size  Location     Type
  4317 ;;		None
  4318 ;; Return value:  Size  Location     Type
  4319 ;;                  3   26[BANK0 ] float 
  4320 ;; Registers used:
  4321 ;;		wreg, status,2, status,0, pclath, cstack
  4322 ;; Tracked objects:
  4323 ;;		On entry : 0/0
  4324 ;;		On exit  : 0/0
  4325 ;;		Unchanged: 0/0
  4326 ;; Data sizes:     COMMON   BANK0   BANK1   BANK3   BANK2
  4327 ;;      Params:         0       3       0       0       0
  4328 ;;      Locals:         0       0       0       0       0
  4329 ;;      Temps:          0       0       0       0       0
  4330 ;;      Totals:         0       3       0       0       0
  4331 ;;Total ram usage:        3 bytes
  4332 ;; Hardware stack levels used:    1
  4333 ;; Hardware stack levels required when called:    2
  4334 ;; This function calls:
  4335 ;;		___ftge
  4336 ;;		___ftneg
  4337 ;; This function is called by:
  4338 ;;		_main
  4339 ;; This function uses a non-reentrant model
  4340 ;;
  4341                           psect	text991
  4342                           	file	"c:\Program Files (x86)\HI-TECH Software\PICC\9.82\sources\fabs.c"
  4343                           	line	5
  4344                           	global	__size_of_fabs
  4345  002F                     	__size_of_fabs	equ	__end_of_fabs-_fabs
  4346                           	
  4347  0F4C                     _fabs:	
  4348                           	opt	stack 5
  4349                           ; Regs used in _fabs: [wreg+status,2+status,0+pclath+cstack]
  4350                           	line	6
  4351                           	
  4352  0F4C                     l6020:	
  4353  0F4C  1283               	bcf	status, 5	;RP0=0, select bank0
  4354  0F4D  1303               	bcf	status, 6	;RP1=0, select bank0
  4355  0F4E  083A               	movf	(fabs@d),w
  4356  0F4F  00A8               	movwf	(?___ftge)
  4357  0F50  083B               	movf	(fabs@d+1),w
  4358  0F51  00A9               	movwf	(?___ftge+1)
  4359  0F52  083C               	movf	(fabs@d+2),w
  4360  0F53  00AA               	movwf	(?___ftge+2)
  4361  0F54  3000               	movlw	0x0
  4362  0F55  00AB               	movwf	0+(?___ftge)+03h
  4363  0F56  3000               	movlw	0x0
  4364  0F57  00AC               	movwf	1+(?___ftge)+03h
  4365  0F58  3000               	movlw	0x0
  4366  0F59  00AD               	movwf	2+(?___ftge)+03h
  4367  0F5A  120A  118A  2736   	fcall	___ftge
              120A  158A         
  4368  0F5F  1803               	btfsc	status,0
  4369  0F60  2F62               	goto	u4291
  4370  0F61  2F63               	goto	u4290
  4371  0F62                     u4291:
  4372  0F62  2F7A               	goto	l3088
  4373  0F63                     u4290:
  4374                           	line	7
  4375                           	
  4376  0F63                     l6022:	
  4377  0F63  1283               	bcf	status, 5	;RP0=0, select bank0
  4378  0F64  1303               	bcf	status, 6	;RP1=0, select bank0
  4379  0F65  083A               	movf	(fabs@d),w
  4380  0F66  00A0               	movwf	(?___ftneg)
  4381  0F67  083B               	movf	(fabs@d+1),w
  4382  0F68  00A1               	movwf	(?___ftneg+1)
  4383  0F69  083C               	movf	(fabs@d+2),w
  4384  0F6A  00A2               	movwf	(?___ftneg+2)
  4385  0F6B  120A  158A  25AA   	fcall	___ftneg
              120A  158A         
  4386  0F70  1283               	bcf	status, 5	;RP0=0, select bank0
  4387  0F71  1303               	bcf	status, 6	;RP1=0, select bank0
  4388  0F72  0820               	movf	(0+(?___ftneg)),w
  4389  0F73  00BA               	movwf	(?_fabs)
  4390  0F74  0821               	movf	(1+(?___ftneg)),w
  4391  0F75  00BB               	movwf	(?_fabs+1)
  4392  0F76  0822               	movf	(2+(?___ftneg)),w
  4393  0F77  00BC               	movwf	(?_fabs+2)
  4394  0F78  2F7A               	goto	l3089
  4395                           	
  4396  0F79                     l6024:	
  4397  0F79  2F7A               	goto	l3089
  4398                           	
  4399  0F7A                     l3088:	
  4400                           	line	8
  4401                           	line	9
  4402                           	
  4403  0F7A                     l3089:	
  4404  0F7A  0008               	return
  4405                           	opt stack 0
  4406                           GLOBAL	__end_of_fabs
  4407  0F7B                     	__end_of_fabs:
  4408 ;; =============== function _fabs ends ============
  4409                           
  4410                           	signat	_fabs,4219
  4411                           	global	_read_adc
  4412                           psect	text992,local,class=CODE,delta=2
  4413                           global __ptext992
  4414  00C3                     __ptext992:
  4415                           
  4416 ;; *************** function _read_adc *****************
  4417 ;; Defined at:
  4418 ;;		line 88 in file "../mylibs/adc/adc.c"
  4419 ;; Parameters:    Size  Location     Type
  4420 ;;  channel         1    wreg     unsigned char 
  4421 ;; Auto vars:     Size  Location     Type
  4422 ;;  channel         1   10[BANK0 ] unsigned char 
  4423 ;;  readval         2   11[BANK0 ] unsigned int 
  4424 ;;  tmp             1   13[BANK0 ] unsigned char 
  4425 ;; Return value:  Size  Location     Type
  4426 ;;                  2    6[BANK0 ] unsigned int 
  4427 ;; Registers used:
  4428 ;;		wreg, status,2, status,0, btemp+1, pclath, cstack
  4429 ;; Tracked objects:
  4430 ;;		On entry : 0/0
  4431 ;;		On exit  : 0/0
  4432 ;;		Unchanged: 0/0
  4433 ;; Data sizes:     COMMON   BANK0   BANK1   BANK3   BANK2
  4434 ;;      Params:         0       2       0       0       0
  4435 ;;      Locals:         0       4       0       0       0
  4436 ;;      Temps:          0       2       0       0       0
  4437 ;;      Totals:         0       8       0       0       0
  4438 ;;Total ram usage:        8 bytes
  4439 ;; Hardware stack levels used:    1
  4440 ;; Hardware stack levels required when called:    2
  4441 ;; This function calls:
  4442 ;;		Absolute function
  4443 ;;		_result_left
  4444 ;;		_result_right
  4445 ;; This function is called by:
  4446 ;;		_main
  4447 ;; This function uses a non-reentrant model
  4448 ;;
  4449                           psect	text992
  4450                           	file	"../mylibs/adc/adc.c"
  4451                           	line	88
  4452                           	global	__size_of_read_adc
  4453  0037                     	__size_of_read_adc	equ	__end_of_read_adc-_read_adc
  4454                           	
  4455  00C3                     _read_adc:	
  4456                           	opt	stack 5
  4457                           ; Regs used in _read_adc: [wreg+status,2+status,0+btemp+1+pclath+cstack]
  4458                           ;read_adc@channel stored from wreg
  4459                           	line	94
  4460  00C3  1283               	bcf	status, 5	;RP0=0, select bank0
  4461  00C4  1303               	bcf	status, 6	;RP1=0, select bank0
  4462  00C5  00AA               	movwf	(read_adc@channel)
  4463                           	
  4464  00C6                     l6010:	
  4465                           ;adc.c: 89: unsigned int readval;
  4466                           ;adc.c: 90: unsigned char tmp;
  4467                           ;adc.c: 94: tmp = (ADCON0 & 0b11000000) + 0b00000001;
  4468  00C6  081F               	movf	(31),w
  4469  00C7  39C0               	andlw	0C0h
  4470  00C8  3E01               	addlw	01h
  4471  00C9  00A8               	movwf	(??_read_adc+0)+0
  4472  00CA  0828               	movf	(??_read_adc+0)+0,w
  4473  00CB  00AD               	movwf	(read_adc@tmp)
  4474                           	line	95
  4475                           ;adc.c: 95: ADCON0 = ((channel << 3) & 0b00111000) + tmp;
  4476  00CC  082A               	movf	(read_adc@channel),w
  4477  00CD  00A8               	movwf	(??_read_adc+0)+0
  4478  00CE  3003               	movlw	03h
  4479  00CF                     u4275:
  4480  00CF  1003               	clrc
  4481  00D0  0DA8               	rlf	(??_read_adc+0)+0,f
  4482  00D1  3EFF               	addlw	-1
  4483  00D2  1D03               	skipz
  4484  00D3  28CF               	goto	u4275
  4485  00D4  3038               	movlw	(038h)
  4486  00D5  0528               	andwf	0+(??_read_adc+0)+0,w
  4487  00D6  00A9               	movwf	(??_read_adc+1)+0
  4488  00D7  082D               	movf	(read_adc@tmp),w
  4489  00D8  0729               	addwf	0+(??_read_adc+1)+0,w
  4490  00D9  009F               	movwf	(31)	;volatile
  4491                           	line	96
  4492                           	
  4493  00DA                     l6012:	
  4494                           ;adc.c: 96: GO_DONE = 1;
  4495  00DA  151F               	bsf	(250/8),(250)&7
  4496                           	line	97
  4497                           ;adc.c: 97: while(GO_DONE)
  4498  00DB  28DD               	goto	l1237
  4499                           	
  4500  00DC                     l1238:	
  4501                           	line	98
  4502                           ;adc.c: 98: _nop();
  4503  00DC  0000               	nop
  4504                           	
  4505  00DD                     l1237:	
  4506                           	line	97
  4507  00DD  1283               	bcf	status, 5	;RP0=0, select bank0
  4508  00DE  1303               	bcf	status, 6	;RP1=0, select bank0
  4509  00DF  191F               	btfsc	(250/8),(250)&7
  4510  00E0  28E2               	goto	u4281
  4511  00E1  28E3               	goto	u4280
  4512  00E2                     u4281:
  4513  00E2  28DC               	goto	l1238
  4514  00E3                     u4280:
  4515  00E3  28E4               	goto	l6014
  4516                           	
  4517  00E4                     l1239:	
  4518                           	line	100
  4519                           	
  4520  00E4                     l6014:	
  4521                           ;adc.c: 100: readval = result_adc();
  4522  00E4  0866               	movf	(_result_adc),w
  4523  00E5  120A  118A  2100   	fcall	fptable
              120A  118A         
  4524  00EA  1283               	bcf	status, 5	;RP0=0, select bank0
  4525  00EB  1303               	bcf	status, 6	;RP1=0, select bank0
  4526  00EC  0821               	movf	(1+(?_result_left)),w
  4527  00ED  01AC               	clrf	(read_adc@readval+1)
  4528  00EE  07AC               	addwf	(read_adc@readval+1)
  4529  00EF  0820               	movf	(0+(?_result_left)),w
  4530  00F0  01AB               	clrf	(read_adc@readval)
  4531  00F1  07AB               	addwf	(read_adc@readval)
  4532                           
  4533                           	line	102
  4534                           	
  4535  00F2                     l6016:	
  4536                           ;adc.c: 102: return readval;
  4537  00F2  082C               	movf	(read_adc@readval+1),w
  4538  00F3  01A7               	clrf	(?_read_adc+1)
  4539  00F4  07A7               	addwf	(?_read_adc+1)
  4540  00F5  082B               	movf	(read_adc@readval),w
  4541  00F6  01A6               	clrf	(?_read_adc)
  4542  00F7  07A6               	addwf	(?_read_adc)
  4543                           
  4544  00F8  28F9               	goto	l1240
  4545                           	
  4546  00F9                     l6018:	
  4547                           	line	104
  4548                           	
  4549  00F9                     l1240:	
  4550  00F9  0008               	return
  4551                           	opt stack 0
  4552                           GLOBAL	__end_of_read_adc
  4553  00FA                     	__end_of_read_adc:
  4554 ;; =============== function _read_adc ends ============
  4555                           
  4556                           	signat	_read_adc,4218
  4557                           	global	_i2c_WaitForSCL
  4558                           psect	text993,local,class=CODE,delta=2
  4559                           global __ptext993
  4560  0E01                     __ptext993:
  4561                           
  4562 ;; *************** function _i2c_WaitForSCL *****************
  4563 ;; Defined at:
  4564 ;;		line 266 in file "../mylibs/i2c/i2c.c"
  4565 ;; Parameters:    Size  Location     Type
  4566 ;;		None
  4567 ;; Auto vars:     Size  Location     Type
  4568 ;;		None
  4569 ;; Return value:  Size  Location     Type
  4570 ;;                  1    wreg      unsigned char 
  4571 ;; Registers used:
  4572 ;;		wreg
  4573 ;; Tracked objects:
  4574 ;;		On entry : 0/0
  4575 ;;		On exit  : 0/0
  4576 ;;		Unchanged: 0/0
  4577 ;; Data sizes:     COMMON   BANK0   BANK1   BANK3   BANK2
  4578 ;;      Params:         0       0       0       0       0
  4579 ;;      Locals:         0       0       0       0       0
  4580 ;;      Temps:          0       1       0       0       0
  4581 ;;      Totals:         0       1       0       0       0
  4582 ;;Total ram usage:        1 bytes
  4583 ;; Hardware stack levels used:    1
  4584 ;; Hardware stack levels required when called:    1
  4585 ;; This function calls:
  4586 ;;		Nothing
  4587 ;; This function is called by:
  4588 ;;		_i2c_SendByte
  4589 ;;		_i2c_ReadAcknowledge
  4590 ;;		_i2c_ReadByte
  4591 ;; This function uses a non-reentrant model
  4592 ;;
  4593                           psect	text993
  4594                           	file	"../mylibs/i2c/i2c.c"
  4595                           	line	266
  4596                           	global	__size_of_i2c_WaitForSCL
  4597  0017                     	__size_of_i2c_WaitForSCL	equ	__end_of_i2c_WaitForSCL-_i2c_WaitForSCL
  4598                           	
  4599  0E01                     _i2c_WaitForSCL:	
  4600                           	opt	stack 2
  4601                           ; Regs used in _i2c_WaitForSCL: [wreg]
  4602                           	line	268
  4603                           	
  4604  0E01                     l5996:	
  4605                           ;i2c.c: 268: if(!RC3)
  4606  0E01  1283               	bcf	status, 5	;RP0=0, select bank0
  4607  0E02  1303               	bcf	status, 6	;RP1=0, select bank0
  4608  0E03  1987               	btfsc	(59/8),(59)&7
  4609  0E04  2E06               	goto	u4251
  4610  0E05  2E07               	goto	u4250
  4611  0E06                     u4251:
  4612  0E06  2E15               	goto	l6006
  4613  0E07                     u4250:
  4614                           	line	270
  4615                           	
  4616  0E07                     l5998:	
  4617                           ;i2c.c: 269: {
  4618                           ;i2c.c: 270: _delay((unsigned long)((10)*(4000000/4000000.0)));
  4619                           	opt asmopt_off
  4620  0E07  3003               movlw	3
  4621  0E08  00A0               movwf	(??_i2c_WaitForSCL+0)+0,f
  4622  0E09                     u4877:
  4623  0E09  0BA0               decfsz	(??_i2c_WaitForSCL+0)+0,f
  4624  0E0A  2E09               	goto	u4877
  4625                           opt asmopt_on
  4626                           
  4627                           	line	272
  4628                           	
  4629  0E0B                     l6000:	
  4630                           ;i2c.c: 272: if(!RC3)
  4631  0E0B  1283               	bcf	status, 5	;RP0=0, select bank0
  4632  0E0C  1303               	bcf	status, 6	;RP1=0, select bank0
  4633  0E0D  1987               	btfsc	(59/8),(59)&7
  4634  0E0E  2E10               	goto	u4261
  4635  0E0F  2E11               	goto	u4260
  4636  0E10                     u4261:
  4637  0E10  2E15               	goto	l6006
  4638  0E11                     u4260:
  4639                           	line	273
  4640                           	
  4641  0E11                     l6002:	
  4642                           ;i2c.c: 273: return !0;
  4643  0E11  3001               	movlw	(01h)
  4644  0E12  2E17               	goto	l636
  4645                           	
  4646  0E13                     l6004:	
  4647  0E13  2E17               	goto	l636
  4648                           	
  4649  0E14                     l635:	
  4650  0E14  2E15               	goto	l6006
  4651                           	line	274
  4652                           	
  4653  0E15                     l634:	
  4654                           	line	275
  4655                           	
  4656  0E15                     l6006:	
  4657                           ;i2c.c: 274: }
  4658                           ;i2c.c: 275: return 0;
  4659  0E15  3000               	movlw	(0)
  4660  0E16  2E17               	goto	l636
  4661                           	
  4662  0E17                     l6008:	
  4663                           	line	276
  4664                           	
  4665  0E17                     l636:	
  4666  0E17  0008               	return
  4667                           	opt stack 0
  4668                           GLOBAL	__end_of_i2c_WaitForSCL
  4669  0E18                     	__end_of_i2c_WaitForSCL:
  4670 ;; =============== function _i2c_WaitForSCL ends ============
  4671                           
  4672                           	signat	_i2c_WaitForSCL,89
  4673                           	global	_i2c_Restart
  4674                           psect	text994,local,class=CODE,delta=2
  4675                           global __ptext994
  4676  0DC7                     __ptext994:
  4677                           
  4678 ;; *************** function _i2c_Restart *****************
  4679 ;; Defined at:
  4680 ;;		line 44 in file "../mylibs/i2c/i2c.c"
  4681 ;; Parameters:    Size  Location     Type
  4682 ;;		None
  4683 ;; Auto vars:     Size  Location     Type
  4684 ;;		None
  4685 ;; Return value:  Size  Location     Type
  4686 ;;		None               void
  4687 ;; Registers used:
  4688 ;;		None
  4689 ;; Tracked objects:
  4690 ;;		On entry : 0/0
  4691 ;;		On exit  : 0/0
  4692 ;;		Unchanged: 0/0
  4693 ;; Data sizes:     COMMON   BANK0   BANK1   BANK3   BANK2
  4694 ;;      Params:         0       0       0       0       0
  4695 ;;      Locals:         0       0       0       0       0
  4696 ;;      Temps:          0       0       0       0       0
  4697 ;;      Totals:         0       0       0       0       0
  4698 ;;Total ram usage:        0 bytes
  4699 ;; Hardware stack levels used:    1
  4700 ;; Hardware stack levels required when called:    1
  4701 ;; This function calls:
  4702 ;;		Nothing
  4703 ;; This function is called by:
  4704 ;;		_i2c_Open
  4705 ;;		_init_dig_pot
  4706 ;;		_send_pot_val
  4707 ;; This function uses a non-reentrant model
  4708 ;;
  4709                           psect	text994
  4710                           	file	"../mylibs/i2c/i2c.c"
  4711                           	line	44
  4712                           	global	__size_of_i2c_Restart
  4713  0010                     	__size_of_i2c_Restart	equ	__end_of_i2c_Restart-_i2c_Restart
  4714                           	
  4715  0DC7                     _i2c_Restart:	
  4716                           	opt	stack 4
  4717                           ; Regs used in _i2c_Restart: []
  4718                           	line	45
  4719                           	
  4720  0DC7                     l5370:	
  4721                           ;i2c.c: 45: TRISC3 = 0;
  4722  0DC7  1683               	bsf	status, 5	;RP0=1, select bank1
  4723  0DC8  1303               	bcf	status, 6	;RP1=0, select bank1
  4724  0DC9  1187               	bcf	(1083/8)^080h,(1083)&7
  4725                           	line	46
  4726                           ;i2c.c: 46: TRISC4 = 1;
  4727  0DCA  1607               	bsf	(1084/8)^080h,(1084)&7
  4728                           	line	48
  4729                           ;i2c.c: 48: _delay((unsigned long)((1)*(4000000/4000000.0)));
  4730                           		opt asmopt_off
  4731  0DCB  0064               	clrwdt
  4732                           	opt asmopt_on
  4733                           
  4734                           	line	50
  4735                           ;i2c.c: 50: TRISC3 = 1;
  4736  0DCC  1683               	bsf	status, 5	;RP0=1, select bank1
  4737  0DCD  1303               	bcf	status, 6	;RP1=0, select bank1
  4738  0DCE  1587               	bsf	(1083/8)^080h,(1083)&7
  4739                           	line	51
  4740                           ;i2c.c: 51: _delay((unsigned long)((4)*(4000000/4000000.0)));
  4741                           		opt asmopt_off
  4742  0DCF  2DD0               	nop2	;2 cycle nop
  4743                           	opt asmopt_on
  4744                           	opt asmopt_off
  4745  0DD0  2DD1               	nop2	;2 cycle nop
  4746                           	opt asmopt_on
  4747                           
  4748                           	line	53
  4749                           ;i2c.c: 53: TRISC4 = 0;
  4750  0DD1  1683               	bsf	status, 5	;RP0=1, select bank1
  4751  0DD2  1303               	bcf	status, 6	;RP1=0, select bank1
  4752  0DD3  1207               	bcf	(1084/8)^080h,(1084)&7
  4753                           	line	54
  4754                           ;i2c.c: 54: _delay((unsigned long)((4)*(4000000/4000000.0)));
  4755                           		opt asmopt_off
  4756  0DD4  2DD5               	nop2	;2 cycle nop
  4757                           	opt asmopt_on
  4758                           	opt asmopt_off
  4759  0DD5  2DD6               	nop2	;2 cycle nop
  4760                           	opt asmopt_on
  4761                           
  4762                           	line	56
  4763                           ;i2c.c: 55: return;
  4764                           	
  4765  0DD6                     l576:	
  4766  0DD6  0008               	return
  4767                           	opt stack 0
  4768                           GLOBAL	__end_of_i2c_Restart
  4769  0DD7                     	__end_of_i2c_Restart:
  4770 ;; =============== function _i2c_Restart ends ============
  4771                           
  4772                           	signat	_i2c_Restart,88
  4773                           	global	_i2c_Stop
  4774                           psect	text995,local,class=CODE,delta=2
  4775                           global __ptext995
  4776  0DD7                     __ptext995:
  4777                           
  4778 ;; *************** function _i2c_Stop *****************
  4779 ;; Defined at:
  4780 ;;		line 20 in file "../mylibs/i2c/i2c.c"
  4781 ;; Parameters:    Size  Location     Type
  4782 ;;		None
  4783 ;; Auto vars:     Size  Location     Type
  4784 ;;		None
  4785 ;; Return value:  Size  Location     Type
  4786 ;;		None               void
  4787 ;; Registers used:
  4788 ;;		None
  4789 ;; Tracked objects:
  4790 ;;		On entry : 0/0
  4791 ;;		On exit  : 0/0
  4792 ;;		Unchanged: 0/0
  4793 ;; Data sizes:     COMMON   BANK0   BANK1   BANK3   BANK2
  4794 ;;      Params:         0       0       0       0       0
  4795 ;;      Locals:         0       0       0       0       0
  4796 ;;      Temps:          0       0       0       0       0
  4797 ;;      Totals:         0       0       0       0       0
  4798 ;;Total ram usage:        0 bytes
  4799 ;; Hardware stack levels used:    1
  4800 ;; Hardware stack levels required when called:    1
  4801 ;; This function calls:
  4802 ;;		Nothing
  4803 ;; This function is called by:
  4804 ;;		_init_dig_pot
  4805 ;;		_send_pot_val
  4806 ;;		_i2c_read
  4807 ;; This function uses a non-reentrant model
  4808 ;;
  4809                           psect	text995
  4810                           	file	"../mylibs/i2c/i2c.c"
  4811                           	line	20
  4812                           	global	__size_of_i2c_Stop
  4813  0014                     	__size_of_i2c_Stop	equ	__end_of_i2c_Stop-_i2c_Stop
  4814                           	
  4815  0DD7                     _i2c_Stop:	
  4816                           	opt	stack 5
  4817                           ; Regs used in _i2c_Stop: []
  4818                           	line	23
  4819                           	
  4820  0DD7                     l5368:	
  4821                           ;i2c.c: 23: TRISC4 = 0;
  4822  0DD7  1683               	bsf	status, 5	;RP0=1, select bank1
  4823  0DD8  1303               	bcf	status, 6	;RP1=0, select bank1
  4824  0DD9  1207               	bcf	(1084/8)^080h,(1084)&7
  4825                           	line	24
  4826                           ;i2c.c: 24: TRISC3 = 1;
  4827  0DDA  1587               	bsf	(1083/8)^080h,(1083)&7
  4828                           	line	26
  4829                           ;i2c.c: 26: _delay((unsigned long)((1)*(4000000/4000000.0)));
  4830                           		opt asmopt_off
  4831  0DDB  0064               	clrwdt
  4832                           	opt asmopt_on
  4833                           
  4834                           	line	27
  4835                           ;i2c.c: 27: TRISC3 = 1;
  4836  0DDC  1683               	bsf	status, 5	;RP0=1, select bank1
  4837  0DDD  1303               	bcf	status, 6	;RP1=0, select bank1
  4838  0DDE  1587               	bsf	(1083/8)^080h,(1083)&7
  4839                           	line	28
  4840                           ;i2c.c: 28: _delay((unsigned long)((4)*(4000000/4000000.0)));
  4841                           		opt asmopt_off
  4842  0DDF  2DE0               	nop2	;2 cycle nop
  4843                           	opt asmopt_on
  4844                           	opt asmopt_off
  4845  0DE0  2DE1               	nop2	;2 cycle nop
  4846                           	opt asmopt_on
  4847                           
  4848                           	line	29
  4849                           ;i2c.c: 29: TRISC4 = 1;
  4850  0DE1  1683               	bsf	status, 5	;RP0=1, select bank1
  4851  0DE2  1303               	bcf	status, 6	;RP1=0, select bank1
  4852  0DE3  1607               	bsf	(1084/8)^080h,(1084)&7
  4853                           	line	30
  4854                           ;i2c.c: 30: _delay((unsigned long)((5)*(4000000/4000000.0)));
  4855                           		opt asmopt_off
  4856  0DE4  2DE5               	nop2	;2 cycle nop
  4857                           	opt asmopt_on
  4858                           	opt asmopt_off
  4859  0DE5  2DE6               	nop2	;2 cycle nop
  4860                           	opt asmopt_on
  4861                           	opt asmopt_off
  4862  0DE6  0064               	clrwdt
  4863                           	opt asmopt_on
  4864                           
  4865                           	line	31
  4866                           ;i2c.c: 31: TRISC4 = 1;
  4867  0DE7  1683               	bsf	status, 5	;RP0=1, select bank1
  4868  0DE8  1303               	bcf	status, 6	;RP1=0, select bank1
  4869  0DE9  1607               	bsf	(1084/8)^080h,(1084)&7
  4870                           	line	34
  4871                           ;i2c.c: 33: return;
  4872                           	
  4873  0DEA                     l573:	
  4874  0DEA  0008               	return
  4875                           	opt stack 0
  4876                           GLOBAL	__end_of_i2c_Stop
  4877  0DEB                     	__end_of_i2c_Stop:
  4878 ;; =============== function _i2c_Stop ends ============
  4879                           
  4880                           	signat	_i2c_Stop,88
  4881                           	global	___ftge
  4882                           psect	text996,local,class=CODE,delta=2
  4883                           global __ptext996
  4884  0736                     __ptext996:
  4885                           
  4886 ;; *************** function ___ftge *****************
  4887 ;; Defined at:
  4888 ;;		line 5 in file "c:\Program Files (x86)\HI-TECH Software\PICC\9.82\sources\ftge.c"
  4889 ;; Parameters:    Size  Location     Type
  4890 ;;  ff1             3    8[BANK0 ] float 
  4891 ;;  ff2             3   11[BANK0 ] float 
  4892 ;; Auto vars:     Size  Location     Type
  4893 ;;		None
  4894 ;; Return value:  Size  Location     Type
  4895 ;;		None               void
  4896 ;; Registers used:
  4897 ;;		wreg, status,2, status,0
  4898 ;; Tracked objects:
  4899 ;;		On entry : 0/0
  4900 ;;		On exit  : 0/0
  4901 ;;		Unchanged: 0/0
  4902 ;; Data sizes:     COMMON   BANK0   BANK1   BANK3   BANK2
  4903 ;;      Params:         0       6       0       0       0
  4904 ;;      Locals:         0       0       0       0       0
  4905 ;;      Temps:          0       6       0       0       0
  4906 ;;      Totals:         0      12       0       0       0
  4907 ;;Total ram usage:       12 bytes
  4908 ;; Hardware stack levels used:    1
  4909 ;; Hardware stack levels required when called:    1
  4910 ;; This function calls:
  4911 ;;		Nothing
  4912 ;; This function is called by:
  4913 ;;		_main
  4914 ;;		_fabs
  4915 ;; This function uses a non-reentrant model
  4916 ;;
  4917                           psect	text996
  4918                           	file	"c:\Program Files (x86)\HI-TECH Software\PICC\9.82\sources\ftge.c"
  4919                           	line	5
  4920                           	global	__size_of___ftge
  4921  006E                     	__size_of___ftge	equ	__end_of___ftge-___ftge
  4922                           	
  4923  0736                     ___ftge:	
  4924                           	opt	stack 6
  4925                           ; Regs used in ___ftge: [wreg+status,2+status,0]
  4926                           	line	6
  4927                           	
  4928  0736                     l5306:	
  4929  0736  1283               	bcf	status, 5	;RP0=0, select bank0
  4930  0737  1303               	bcf	status, 6	;RP1=0, select bank0
  4931  0738  1FAA               	btfss	(___ftge@ff1+2),(23)&7
  4932  0739  2F3B               	goto	u3141
  4933  073A  2F3C               	goto	u3140
  4934  073B                     u3141:
  4935  073B  2F62               	goto	l5310
  4936  073C                     u3140:
  4937                           	line	7
  4938                           	
  4939  073C                     l5308:	
  4940  073C  3000               	movlw	0
  4941  073D  00AE               	movwf	((??___ftge+0)+0)
  4942  073E  3000               	movlw	0
  4943  073F  00AF               	movwf	((??___ftge+0)+0+1)
  4944  0740  3080               	movlw	080h
  4945  0741  00B0               	movwf	((??___ftge+0)+0+2)
  4946  0742  0928               	comf	(___ftge@ff1),w
  4947  0743  00B1               	movwf	(??___ftge+3)+0
  4948  0744  0929               	comf	(___ftge@ff1+1),w
  4949  0745  00B2               	movwf	((??___ftge+3)+0+1)
  4950  0746  092A               	comf	(___ftge@ff1+2),w
  4951  0747  00B3               	movwf	((??___ftge+3)+0+2)
  4952  0748  0AB1               	incf	(??___ftge+3)+0,f
  4953  0749  1903               	skipnz
  4954  074A  0AB2               	incf	((??___ftge+3)+0+1),f
  4955  074B  1903               	skipnz
  4956  074C  0AB3               	incf	((??___ftge+3)+0+2),f
  4957  074D  0831               	movf	0+(??___ftge+3)+0,w
  4958  074E  07AE               	addwf	(??___ftge+0)+0,f
  4959  074F  0832               	movf	1+(??___ftge+3)+0,w
  4960  0750  1803               	skipnc
  4961  0751  0F32               	incfsz	1+(??___ftge+3)+0,w
  4962  0752  2F54               	goto	u3151
  4963  0753  2F55               	goto	u3152
  4964  0754                     u3151:
  4965  0754  07AF               	addwf	(??___ftge+0)+1,f
  4966                           	
  4967  0755                     u3152:
  4968  0755  0833               	movf	2+(??___ftge+3)+0,w
  4969  0756  1803               	skipnc
  4970  0757  0F33               	incfsz	2+(??___ftge+3)+0,w
  4971  0758  2F5A               	goto	u3153
  4972  0759  2F5B               	goto	u3154
  4973  075A                     u3153:
  4974  075A  07B0               	addwf	(??___ftge+0)+2,f
  4975                           	
  4976  075B                     u3154:
  4977  075B  082E               	movf	0+(??___ftge+0)+0,w
  4978  075C  00A8               	movwf	(___ftge@ff1)
  4979  075D  082F               	movf	1+(??___ftge+0)+0,w
  4980  075E  00A9               	movwf	(___ftge@ff1+1)
  4981  075F  0830               	movf	2+(??___ftge+0)+0,w
  4982  0760  00AA               	movwf	(___ftge@ff1+2)
  4983  0761  2F62               	goto	l5310
  4984                           	
  4985  0762                     l3265:	
  4986                           	line	8
  4987                           	
  4988  0762                     l5310:	
  4989  0762  1FAD               	btfss	(___ftge@ff2+2),(23)&7
  4990  0763  2F65               	goto	u3161
  4991  0764  2F66               	goto	u3160
  4992  0765                     u3161:
  4993  0765  2F8C               	goto	l5314
  4994  0766                     u3160:
  4995                           	line	9
  4996                           	
  4997  0766                     l5312:	
  4998  0766  3000               	movlw	0
  4999  0767  00AE               	movwf	((??___ftge+0)+0)
  5000  0768  3000               	movlw	0
  5001  0769  00AF               	movwf	((??___ftge+0)+0+1)
  5002  076A  3080               	movlw	080h
  5003  076B  00B0               	movwf	((??___ftge+0)+0+2)
  5004  076C  092B               	comf	(___ftge@ff2),w
  5005  076D  00B1               	movwf	(??___ftge+3)+0
  5006  076E  092C               	comf	(___ftge@ff2+1),w
  5007  076F  00B2               	movwf	((??___ftge+3)+0+1)
  5008  0770  092D               	comf	(___ftge@ff2+2),w
  5009  0771  00B3               	movwf	((??___ftge+3)+0+2)
  5010  0772  0AB1               	incf	(??___ftge+3)+0,f
  5011  0773  1903               	skipnz
  5012  0774  0AB2               	incf	((??___ftge+3)+0+1),f
  5013  0775  1903               	skipnz
  5014  0776  0AB3               	incf	((??___ftge+3)+0+2),f
  5015  0777  0831               	movf	0+(??___ftge+3)+0,w
  5016  0778  07AE               	addwf	(??___ftge+0)+0,f
  5017  0779  0832               	movf	1+(??___ftge+3)+0,w
  5018  077A  1803               	skipnc
  5019  077B  0F32               	incfsz	1+(??___ftge+3)+0,w
  5020  077C  2F7E               	goto	u3171
  5021  077D  2F7F               	goto	u3172
  5022  077E                     u3171:
  5023  077E  07AF               	addwf	(??___ftge+0)+1,f
  5024                           	
  5025  077F                     u3172:
  5026  077F  0833               	movf	2+(??___ftge+3)+0,w
  5027  0780  1803               	skipnc
  5028  0781  0F33               	incfsz	2+(??___ftge+3)+0,w
  5029  0782  2F84               	goto	u3173
  5030  0783  2F85               	goto	u3174
  5031  0784                     u3173:
  5032  0784  07B0               	addwf	(??___ftge+0)+2,f
  5033                           	
  5034  0785                     u3174:
  5035  0785  082E               	movf	0+(??___ftge+0)+0,w
  5036  0786  00AB               	movwf	(___ftge@ff2)
  5037  0787  082F               	movf	1+(??___ftge+0)+0,w
  5038  0788  00AC               	movwf	(___ftge@ff2+1)
  5039  0789  0830               	movf	2+(??___ftge+0)+0,w
  5040  078A  00AD               	movwf	(___ftge@ff2+2)
  5041  078B  2F8C               	goto	l5314
  5042                           	
  5043  078C                     l3266:	
  5044                           	line	10
  5045                           	
  5046  078C                     l5314:	
  5047  078C  3080               	movlw	080h
  5048  078D  06AA               	xorwf	(___ftge@ff1+2),f
  5049                           	line	11
  5050                           	
  5051  078E                     l5316:	
  5052  078E  3080               	movlw	080h
  5053  078F  06AD               	xorwf	(___ftge@ff2+2),f
  5054                           	line	12
  5055                           	
  5056  0790                     l5318:	
  5057  0790  082D               	movf	(___ftge@ff2+2),w
  5058  0791  022A               	subwf	(___ftge@ff1+2),w
  5059  0792  1D03               	skipz
  5060  0793  2F9A               	goto	u3185
  5061  0794  082C               	movf	(___ftge@ff2+1),w
  5062  0795  0229               	subwf	(___ftge@ff1+1),w
  5063  0796  1D03               	skipz
  5064  0797  2F9A               	goto	u3185
  5065  0798  082B               	movf	(___ftge@ff2),w
  5066  0799  0228               	subwf	(___ftge@ff1),w
  5067  079A                     u3185:
  5068  079A  1803               	skipnc
  5069  079B  2F9D               	goto	u3181
  5070  079C  2F9E               	goto	u3180
  5071  079D                     u3181:
  5072  079D  2FA0               	goto	l5322
  5073  079E                     u3180:
  5074                           	
  5075  079E                     l5320:	
  5076  079E  1003               	clrc
  5077                           	
  5078  079F  2FA3               	goto	l3267
  5079                           	
  5080  07A0                     l5050:	
  5081                           	
  5082  07A0                     l5322:	
  5083  07A0  1403               	setc
  5084                           	
  5085  07A1  2FA3               	goto	l3267
  5086                           	
  5087  07A2                     l5052:	
  5088  07A2  2FA3               	goto	l3267
  5089                           	
  5090  07A3                     l5324:	
  5091                           	line	13
  5092                           	
  5093  07A3                     l3267:	
  5094  07A3  0008               	return
  5095                           	opt stack 0
  5096                           GLOBAL	__end_of___ftge
  5097  07A4                     	__end_of___ftge:
  5098 ;; =============== function ___ftge ends ============
  5099                           
  5100                           	signat	___ftge,8312
  5101                           	global	___ftneg
  5102                           psect	text997,local,class=CODE,delta=2
  5103                           global __ptext997
  5104  0DAA                     __ptext997:
  5105                           
  5106 ;; *************** function ___ftneg *****************
  5107 ;; Defined at:
  5108 ;;		line 16 in file "c:\Program Files (x86)\HI-TECH Software\PICC\9.82\sources\ftneg.c"
  5109 ;; Parameters:    Size  Location     Type
  5110 ;;  f1              3    0[BANK0 ] float 
  5111 ;; Auto vars:     Size  Location     Type
  5112 ;;		None
  5113 ;; Return value:  Size  Location     Type
  5114 ;;                  3    0[BANK0 ] float 
  5115 ;; Registers used:
  5116 ;;		wreg
  5117 ;; Tracked objects:
  5118 ;;		On entry : 0/0
  5119 ;;		On exit  : 0/0
  5120 ;;		Unchanged: 0/0
  5121 ;; Data sizes:     COMMON   BANK0   BANK1   BANK3   BANK2
  5122 ;;      Params:         0       3       0       0       0
  5123 ;;      Locals:         0       0       0       0       0
  5124 ;;      Temps:          0       0       0       0       0
  5125 ;;      Totals:         0       3       0       0       0
  5126 ;;Total ram usage:        3 bytes
  5127 ;; Hardware stack levels used:    1
  5128 ;; Hardware stack levels required when called:    1
  5129 ;; This function calls:
  5130 ;;		Nothing
  5131 ;; This function is called by:
  5132 ;;		_fabs
  5133 ;; This function uses a non-reentrant model
  5134 ;;
  5135                           psect	text997
  5136                           	file	"c:\Program Files (x86)\HI-TECH Software\PICC\9.82\sources\ftneg.c"
  5137                           	line	16
  5138                           	global	__size_of___ftneg
  5139  000E                     	__size_of___ftneg	equ	__end_of___ftneg-___ftneg
  5140                           	
  5141  0DAA                     ___ftneg:	
  5142                           	opt	stack 5
  5143                           ; Regs used in ___ftneg: [wreg]
  5144                           	line	17
  5145                           	
  5146  0DAA                     l5946:	
  5147  0DAA  1283               	bcf	status, 5	;RP0=0, select bank0
  5148  0DAB  1303               	bcf	status, 6	;RP1=0, select bank0
  5149  0DAC  0822               	movf	(___ftneg@f1+2),w
  5150  0DAD  0421               	iorwf	(___ftneg@f1+1),w
  5151  0DAE  0420               	iorwf	(___ftneg@f1),w
  5152  0DAF  1903               	skipnz
  5153  0DB0  2DB2               	goto	u4181
  5154  0DB1  2DB3               	goto	u4180
  5155  0DB2                     u4181:
  5156  0DB2  2DB6               	goto	l5950
  5157  0DB3                     u4180:
  5158                           	line	18
  5159                           	
  5160  0DB3                     l5948:	
  5161  0DB3  3080               	movlw	080h
  5162  0DB4  06A2               	xorwf	(___ftneg@f1+2),f
  5163  0DB5  2DB6               	goto	l5950
  5164                           	
  5165  0DB6                     l3261:	
  5166                           	line	19
  5167                           	
  5168  0DB6                     l5950:	
  5169  0DB6  2DB7               	goto	l3262
  5170                           	
  5171  0DB7                     l5952:	
  5172                           	line	20
  5173                           	
  5174  0DB7                     l3262:	
  5175  0DB7  0008               	return
  5176                           	opt stack 0
  5177                           GLOBAL	__end_of___ftneg
  5178  0DB8                     	__end_of___ftneg:
  5179 ;; =============== function ___ftneg ends ============
  5180                           
  5181                           	signat	___ftneg,4219
  5182                           	global	___fttol
  5183                           psect	text998,local,class=CODE,delta=2
  5184                           global __ptext998
  5185  0613                     __ptext998:
  5186                           
  5187 ;; *************** function ___fttol *****************
  5188 ;; Defined at:
  5189 ;;		line 45 in file "c:\Program Files (x86)\HI-TECH Software\PICC\9.82\sources\fttol.c"
  5190 ;; Parameters:    Size  Location     Type
  5191 ;;  f1              3    8[BANK0 ] float 
  5192 ;; Auto vars:     Size  Location     Type
  5193 ;;  lval            4   17[BANK0 ] unsigned long 
  5194 ;;  exp1            1   21[BANK0 ] unsigned char 
  5195 ;;  sign1           1   16[BANK0 ] unsigned char 
  5196 ;; Return value:  Size  Location     Type
  5197 ;;                  4    8[BANK0 ] long 
  5198 ;; Registers used:
  5199 ;;		wreg, status,2, status,0
  5200 ;; Tracked objects:
  5201 ;;		On entry : 0/0
  5202 ;;		On exit  : 0/0
  5203 ;;		Unchanged: 0/0
  5204 ;; Data sizes:     COMMON   BANK0   BANK1   BANK3   BANK2
  5205 ;;      Params:         0       4       0       0       0
  5206 ;;      Locals:         0       6       0       0       0
  5207 ;;      Temps:          0       4       0       0       0
  5208 ;;      Totals:         0      14       0       0       0
  5209 ;;Total ram usage:       14 bytes
  5210 ;; Hardware stack levels used:    1
  5211 ;; Hardware stack levels required when called:    1
  5212 ;; This function calls:
  5213 ;;		Nothing
  5214 ;; This function is called by:
  5215 ;;		_init_pic
  5216 ;;		_main
  5217 ;; This function uses a non-reentrant model
  5218 ;;
  5219                           psect	text998
  5220                           	file	"c:\Program Files (x86)\HI-TECH Software\PICC\9.82\sources\fttol.c"
  5221                           	line	45
  5222                           	global	__size_of___fttol
  5223  00A6                     	__size_of___fttol	equ	__end_of___fttol-___fttol
  5224                           	
  5225  0613                     ___fttol:	
  5226                           	opt	stack 6
  5227                           ; Regs used in ___fttol: [wreg+status,2+status,0]
  5228                           	line	49
  5229                           	
  5230  0613                     l5246:	
  5231  0613  1283               	bcf	status, 5	;RP0=0, select bank0
  5232  0614  1303               	bcf	status, 6	;RP1=0, select bank0
  5233  0615  0828               	movf	(___fttol@f1),w
  5234  0616  00AC               	movwf	((??___fttol+0)+0)
  5235  0617  0829               	movf	(___fttol@f1+1),w
  5236  0618  00AD               	movwf	((??___fttol+0)+0+1)
  5237  0619  082A               	movf	(___fttol@f1+2),w
  5238  061A  00AE               	movwf	((??___fttol+0)+0+2)
  5239  061B  1003               	clrc
  5240  061C  0D2D               	rlf	(??___fttol+0)+1,w
  5241  061D  0D2E               	rlf	(??___fttol+0)+2,w
  5242  061E  00AF               	movwf	(??___fttol+3)+0
  5243  061F  082F               	movf	(??___fttol+3)+0,w
  5244  0620  00B5               	movwf	(___fttol@exp1)
  5245  0621  08B5               	movf	((___fttol@exp1)),f
  5246  0622  1D03               	skipz
  5247  0623  2E25               	goto	u3021
  5248  0624  2E26               	goto	u3020
  5249  0625                     u3021:
  5250  0625  2E30               	goto	l5252
  5251  0626                     u3020:
  5252                           	line	50
  5253                           	
  5254  0626                     l5248:	
  5255  0626  3000               	movlw	0
  5256  0627  00AB               	movwf	(?___fttol+3)
  5257  0628  3000               	movlw	0
  5258  0629  00AA               	movwf	(?___fttol+2)
  5259  062A  3000               	movlw	0
  5260  062B  00A9               	movwf	(?___fttol+1)
  5261  062C  3000               	movlw	0
  5262  062D  00A8               	movwf	(?___fttol)
  5263                           
  5264  062E  2EB8               	goto	l3208
  5265                           	
  5266  062F                     l5250:	
  5267  062F  2EB8               	goto	l3208
  5268                           	
  5269  0630                     l3207:	
  5270                           	line	51
  5271                           	
  5272  0630                     l5252:	
  5273  0630  0828               	movf	(___fttol@f1),w
  5274  0631  00AC               	movwf	((??___fttol+0)+0)
  5275  0632  0829               	movf	(___fttol@f1+1),w
  5276  0633  00AD               	movwf	((??___fttol+0)+0+1)
  5277  0634  082A               	movf	(___fttol@f1+2),w
  5278  0635  00AE               	movwf	((??___fttol+0)+0+2)
  5279  0636  3017               	movlw	017h
  5280  0637                     u3035:
  5281  0637  1003               	clrc
  5282  0638  0CAE               	rrf	(??___fttol+0)+2,f
  5283  0639  0CAD               	rrf	(??___fttol+0)+1,f
  5284  063A  0CAC               	rrf	(??___fttol+0)+0,f
  5285  063B                     u3030:
  5286  063B  3EFF               	addlw	-1
  5287  063C  1D03               	skipz
  5288  063D  2E37               	goto	u3035
  5289  063E  082C               	movf	0+(??___fttol+0)+0,w
  5290  063F  00AF               	movwf	(??___fttol+3)+0
  5291  0640  082F               	movf	(??___fttol+3)+0,w
  5292  0641  00B0               	movwf	(___fttol@sign1)
  5293                           	line	52
  5294                           	
  5295  0642                     l5254:	
  5296  0642  17A9               	bsf	(___fttol@f1)+(15/8),(15)&7
  5297                           	line	53
  5298                           	
  5299  0643                     l5256:	
  5300  0643  30FF               	movlw	0FFh
  5301  0644  05A8               	andwf	(___fttol@f1),f
  5302  0645  30FF               	movlw	0FFh
  5303  0646  05A9               	andwf	(___fttol@f1+1),f
  5304  0647  3000               	movlw	0
  5305  0648  05AA               	andwf	(___fttol@f1+2),f
  5306                           	line	54
  5307                           	
  5308  0649                     l5258:	
  5309  0649  0828               	movf	(___fttol@f1),w
  5310  064A  00B1               	movwf	(___fttol@lval)
  5311  064B  0829               	movf	(___fttol@f1+1),w
  5312  064C  00B2               	movwf	((___fttol@lval))+1
  5313  064D  082A               	movf	(___fttol@f1+2),w
  5314  064E  00B3               	movwf	((___fttol@lval))+2
  5315  064F  01B4               	clrf	((___fttol@lval))+3
  5316                           	line	55
  5317                           	
  5318  0650                     l5260:	
  5319  0650  308E               	movlw	low(08Eh)
  5320  0651  02B5               	subwf	(___fttol@exp1),f
  5321                           	line	56
  5322                           	
  5323  0652                     l5262:	
  5324  0652  1FB5               	btfss	(___fttol@exp1),7
  5325  0653  2E55               	goto	u3041
  5326  0654  2E56               	goto	u3040
  5327  0655                     u3041:
  5328  0655  2E7B               	goto	l5272
  5329  0656                     u3040:
  5330                           	line	57
  5331                           	
  5332  0656                     l5264:	
  5333  0656  0835               	movf	(___fttol@exp1),w
  5334  0657  3A80               	xorlw	80h
  5335  0658  3E8F               	addlw	-((-15)^80h)
  5336  0659  1803               	skipnc
  5337  065A  2E5C               	goto	u3051
  5338  065B  2E5D               	goto	u3050
  5339  065C                     u3051:
  5340  065C  2E68               	goto	l5270
  5341  065D                     u3050:
  5342                           	line	58
  5343                           	
  5344  065D                     l5266:	
  5345  065D  3000               	movlw	0
  5346  065E  00AB               	movwf	(?___fttol+3)
  5347  065F  3000               	movlw	0
  5348  0660  00AA               	movwf	(?___fttol+2)
  5349  0661  3000               	movlw	0
  5350  0662  00A9               	movwf	(?___fttol+1)
  5351  0663  3000               	movlw	0
  5352  0664  00A8               	movwf	(?___fttol)
  5353                           
  5354  0665  2EB8               	goto	l3208
  5355                           	
  5356  0666                     l5268:	
  5357  0666  2EB8               	goto	l3208
  5358                           	
  5359  0667                     l3210:	
  5360  0667  2E68               	goto	l5270
  5361                           	line	59
  5362                           	
  5363  0668                     l3211:	
  5364                           	line	60
  5365                           	
  5366  0668                     l5270:	
  5367  0668  3001               	movlw	01h
  5368  0669                     u3065:
  5369  0669  1003               	clrc
  5370  066A  0CB4               	rrf	(___fttol@lval+3),f
  5371  066B  0CB3               	rrf	(___fttol@lval+2),f
  5372  066C  0CB2               	rrf	(___fttol@lval+1),f
  5373  066D  0CB1               	rrf	(___fttol@lval),f
  5374  066E  3EFF               	addlw	-1
  5375  066F  1D03               	skipz
  5376  0670  2E69               	goto	u3065
  5377                           
  5378                           	line	61
  5379  0671  3001               	movlw	(01h)
  5380  0672  00AC               	movwf	(??___fttol+0)+0
  5381  0673  082C               	movf	(??___fttol+0)+0,w
  5382  0674  07B5               	addwf	(___fttol@exp1),f
  5383  0675  1D03               	btfss	status,2
  5384  0676  2E78               	goto	u3071
  5385  0677  2E79               	goto	u3070
  5386  0678                     u3071:
  5387  0678  2E68               	goto	l5270
  5388  0679                     u3070:
  5389  0679  2E9F               	goto	l5282
  5390                           	
  5391  067A                     l3212:	
  5392                           	line	62
  5393  067A  2E9F               	goto	l5282
  5394                           	
  5395  067B                     l3209:	
  5396                           	line	63
  5397                           	
  5398  067B                     l5272:	
  5399  067B  3018               	movlw	(018h)
  5400  067C  0235               	subwf	(___fttol@exp1),w
  5401  067D  1C03               	skipc
  5402  067E  2E80               	goto	u3081
  5403  067F  2E81               	goto	u3080
  5404  0680                     u3081:
  5405  0680  2E98               	goto	l5280
  5406  0681                     u3080:
  5407                           	line	64
  5408                           	
  5409  0681                     l5274:	
  5410  0681  3000               	movlw	0
  5411  0682  00AB               	movwf	(?___fttol+3)
  5412  0683  3000               	movlw	0
  5413  0684  00AA               	movwf	(?___fttol+2)
  5414  0685  3000               	movlw	0
  5415  0686  00A9               	movwf	(?___fttol+1)
  5416  0687  3000               	movlw	0
  5417  0688  00A8               	movwf	(?___fttol)
  5418                           
  5419  0689  2EB8               	goto	l3208
  5420                           	
  5421  068A                     l5276:	
  5422  068A  2EB8               	goto	l3208
  5423                           	
  5424  068B                     l3214:	
  5425                           	line	65
  5426  068B  2E98               	goto	l5280
  5427                           	
  5428  068C                     l3216:	
  5429                           	line	66
  5430                           	
  5431  068C                     l5278:	
  5432  068C  3001               	movlw	01h
  5433  068D  00AC               	movwf	(??___fttol+0)+0
  5434  068E                     u3095:
  5435  068E  1003               	clrc
  5436  068F  0DB1               	rlf	(___fttol@lval),f
  5437  0690  0DB2               	rlf	(___fttol@lval+1),f
  5438  0691  0DB3               	rlf	(___fttol@lval+2),f
  5439  0692  0DB4               	rlf	(___fttol@lval+3),f
  5440  0693  0BAC               	decfsz	(??___fttol+0)+0
  5441  0694  2E8E               	goto	u3095
  5442                           	line	67
  5443  0695  3001               	movlw	low(01h)
  5444  0696  02B5               	subwf	(___fttol@exp1),f
  5445  0697  2E98               	goto	l5280
  5446                           	line	68
  5447                           	
  5448  0698                     l3215:	
  5449                           	line	65
  5450                           	
  5451  0698                     l5280:	
  5452  0698  08B5               	movf	(___fttol@exp1),f
  5453  0699  1D03               	skipz
  5454  069A  2E9C               	goto	u3101
  5455  069B  2E9D               	goto	u3100
  5456  069C                     u3101:
  5457  069C  2E8C               	goto	l5278
  5458  069D                     u3100:
  5459  069D  2E9F               	goto	l5282
  5460                           	
  5461  069E                     l3217:	
  5462  069E  2E9F               	goto	l5282
  5463                           	line	69
  5464                           	
  5465  069F                     l3213:	
  5466                           	line	70
  5467                           	
  5468  069F                     l5282:	
  5469  069F  0830               	movf	(___fttol@sign1),w
  5470  06A0  1D03               	skipz
  5471  06A1  2EA3               	goto	u3110
  5472  06A2  2EAF               	goto	l5286
  5473  06A3                     u3110:
  5474                           	line	71
  5475                           	
  5476  06A3                     l5284:	
  5477  06A3  09B1               	comf	(___fttol@lval),f
  5478  06A4  09B2               	comf	(___fttol@lval+1),f
  5479  06A5  09B3               	comf	(___fttol@lval+2),f
  5480  06A6  09B4               	comf	(___fttol@lval+3),f
  5481  06A7  0AB1               	incf	(___fttol@lval),f
  5482  06A8  1903               	skipnz
  5483  06A9  0AB2               	incf	(___fttol@lval+1),f
  5484  06AA  1903               	skipnz
  5485  06AB  0AB3               	incf	(___fttol@lval+2),f
  5486  06AC  1903               	skipnz
  5487  06AD  0AB4               	incf	(___fttol@lval+3),f
  5488  06AE  2EAF               	goto	l5286
  5489                           	
  5490  06AF                     l3218:	
  5491                           	line	72
  5492                           	
  5493  06AF                     l5286:	
  5494  06AF  0834               	movf	(___fttol@lval+3),w
  5495  06B0  00AB               	movwf	(?___fttol+3)
  5496  06B1  0833               	movf	(___fttol@lval+2),w
  5497  06B2  00AA               	movwf	(?___fttol+2)
  5498  06B3  0832               	movf	(___fttol@lval+1),w
  5499  06B4  00A9               	movwf	(?___fttol+1)
  5500  06B5  0831               	movf	(___fttol@lval),w
  5501  06B6  00A8               	movwf	(?___fttol)
  5502                           
  5503  06B7  2EB8               	goto	l3208
  5504                           	
  5505  06B8                     l5288:	
  5506                           	line	73
  5507                           	
  5508  06B8                     l3208:	
  5509  06B8  0008               	return
  5510                           	opt stack 0
  5511                           GLOBAL	__end_of___fttol
  5512  06B9                     	__end_of___fttol:
  5513 ;; =============== function ___fttol ends ============
  5514                           
  5515                           	signat	___fttol,4220
  5516                           	global	___ftpack
  5517                           psect	text999,local,class=CODE,delta=2
  5518                           global __ptext999
  5519  06B9                     __ptext999:
  5520                           
  5521 ;; *************** function ___ftpack *****************
  5522 ;; Defined at:
  5523 ;;		line 63 in file "c:\Program Files (x86)\HI-TECH Software\PICC\9.82\sources\float.c"
  5524 ;; Parameters:    Size  Location     Type
  5525 ;;  arg             3    0[BANK0 ] unsigned um
  5526 ;;  exp             1    3[BANK0 ] unsigned char 
  5527 ;;  sign            1    4[BANK0 ] unsigned char 
  5528 ;; Auto vars:     Size  Location     Type
  5529 ;;		None
  5530 ;; Return value:  Size  Location     Type
  5531 ;;                  3    0[BANK0 ] float 
  5532 ;; Registers used:
  5533 ;;		wreg, status,2, status,0
  5534 ;; Tracked objects:
  5535 ;;		On entry : 0/0
  5536 ;;		On exit  : 0/0
  5537 ;;		Unchanged: 0/0
  5538 ;; Data sizes:     COMMON   BANK0   BANK1   BANK3   BANK2
  5539 ;;      Params:         0       5       0       0       0
  5540 ;;      Locals:         0       0       0       0       0
  5541 ;;      Temps:          0       3       0       0       0
  5542 ;;      Totals:         0       8       0       0       0
  5543 ;;Total ram usage:        8 bytes
  5544 ;; Hardware stack levels used:    1
  5545 ;; Hardware stack levels required when called:    1
  5546 ;; This function calls:
  5547 ;;		Nothing
  5548 ;; This function is called by:
  5549 ;;		___ftadd
  5550 ;;		___ftmul
  5551 ;;		___lbtoft
  5552 ;;		___awtoft
  5553 ;;		___lwtoft
  5554 ;;		___ftdiv
  5555 ;;		___abtoft
  5556 ;;		___altoft
  5557 ;;		___lltoft
  5558 ;;		___attoft
  5559 ;;		___lttoft
  5560 ;; This function uses a non-reentrant model
  5561 ;;
  5562                           psect	text999
  5563                           	file	"c:\Program Files (x86)\HI-TECH Software\PICC\9.82\sources\float.c"
  5564                           	line	63
  5565                           	global	__size_of___ftpack
  5566  007D                     	__size_of___ftpack	equ	__end_of___ftpack-___ftpack
  5567                           	
  5568  06B9                     ___ftpack:	
  5569                           	opt	stack 5
  5570                           ; Regs used in ___ftpack: [wreg+status,2+status,0]
  5571                           	line	64
  5572                           	
  5573  06B9                     l5864:	
  5574  06B9  1283               	bcf	status, 5	;RP0=0, select bank0
  5575  06BA  1303               	bcf	status, 6	;RP1=0, select bank0
  5576  06BB  0823               	movf	(___ftpack@exp),w
  5577  06BC  1D03               	skipz
  5578  06BD  2EBF               	goto	u3980
  5579  06BE  2EC7               	goto	l5868
  5580  06BF                     u3980:
  5581                           	
  5582  06BF                     l5866:	
  5583  06BF  0822               	movf	(___ftpack@arg+2),w
  5584  06C0  0421               	iorwf	(___ftpack@arg+1),w
  5585  06C1  0420               	iorwf	(___ftpack@arg),w
  5586  06C2  1D03               	skipz
  5587  06C3  2EC5               	goto	u3991
  5588  06C4  2EC6               	goto	u3990
  5589  06C5                     u3991:
  5590  06C5  2EDD               	goto	l5874
  5591  06C6                     u3990:
  5592  06C6  2EC7               	goto	l5868
  5593                           	
  5594  06C7                     l3432:	
  5595                           	line	65
  5596                           	
  5597  06C7                     l5868:	
  5598  06C7  3000               	movlw	0x0
  5599  06C8  00A0               	movwf	(?___ftpack)
  5600  06C9  3000               	movlw	0x0
  5601  06CA  00A1               	movwf	(?___ftpack+1)
  5602  06CB  3000               	movlw	0x0
  5603  06CC  00A2               	movwf	(?___ftpack+2)
  5604  06CD  2F35               	goto	l3433
  5605                           	
  5606  06CE                     l5870:	
  5607  06CE  2F35               	goto	l3433
  5608                           	
  5609  06CF                     l3430:	
  5610                           	line	66
  5611  06CF  2EDD               	goto	l5874
  5612                           	
  5613  06D0                     l3435:	
  5614                           	line	67
  5615                           	
  5616  06D0                     l5872:	
  5617  06D0  3001               	movlw	(01h)
  5618  06D1  00A5               	movwf	(??___ftpack+0)+0
  5619  06D2  0825               	movf	(??___ftpack+0)+0,w
  5620  06D3  07A3               	addwf	(___ftpack@exp),f
  5621                           	line	68
  5622  06D4  3001               	movlw	01h
  5623  06D5                     u4005:
  5624  06D5  1003               	clrc
  5625  06D6  0CA2               	rrf	(___ftpack@arg+2),f
  5626  06D7  0CA1               	rrf	(___ftpack@arg+1),f
  5627  06D8  0CA0               	rrf	(___ftpack@arg),f
  5628  06D9  3EFF               	addlw	-1
  5629  06DA  1D03               	skipz
  5630  06DB  2ED5               	goto	u4005
  5631                           
  5632  06DC  2EDD               	goto	l5874
  5633                           	line	69
  5634                           	
  5635  06DD                     l3434:	
  5636                           	line	66
  5637                           	
  5638  06DD                     l5874:	
  5639  06DD  30FE               	movlw	low highword(0FE0000h)
  5640  06DE  0522               	andwf	(___ftpack@arg+2),w
  5641  06DF  1D03               	btfss	status,2
  5642  06E0  2EE2               	goto	u4011
  5643  06E1  2EE3               	goto	u4010
  5644  06E2                     u4011:
  5645  06E2  2ED0               	goto	l5872
  5646  06E3                     u4010:
  5647  06E3  2EFB               	goto	l3437
  5648                           	
  5649  06E4                     l3436:	
  5650                           	line	70
  5651  06E4  2EFB               	goto	l3437
  5652                           	
  5653  06E5                     l3438:	
  5654                           	line	71
  5655                           	
  5656  06E5                     l5876:	
  5657  06E5  3001               	movlw	(01h)
  5658  06E6  00A5               	movwf	(??___ftpack+0)+0
  5659  06E7  0825               	movf	(??___ftpack+0)+0,w
  5660  06E8  07A3               	addwf	(___ftpack@exp),f
  5661                           	line	72
  5662                           	
  5663  06E9                     l5878:	
  5664  06E9  3001               	movlw	01h
  5665  06EA  07A0               	addwf	(___ftpack@arg),f
  5666  06EB  3000               	movlw	0
  5667  06EC  1803               	skipnc
  5668  06ED  3001               movlw 1
  5669  06EE  07A1               	addwf	(___ftpack@arg+1),f
  5670  06EF  3000               	movlw	0
  5671  06F0  1803               	skipnc
  5672  06F1  3001               movlw 1
  5673  06F2  07A2               	addwf	(___ftpack@arg+2),f
  5674                           	line	73
  5675                           	
  5676  06F3                     l5880:	
  5677  06F3  3001               	movlw	01h
  5678  06F4                     u4025:
  5679  06F4  1003               	clrc
  5680  06F5  0CA2               	rrf	(___ftpack@arg+2),f
  5681  06F6  0CA1               	rrf	(___ftpack@arg+1),f
  5682  06F7  0CA0               	rrf	(___ftpack@arg),f
  5683  06F8  3EFF               	addlw	-1
  5684  06F9  1D03               	skipz
  5685  06FA  2EF4               	goto	u4025
  5686                           
  5687                           	line	74
  5688                           	
  5689  06FB                     l3437:	
  5690                           	line	70
  5691  06FB  30FF               	movlw	low highword(0FF0000h)
  5692  06FC  0522               	andwf	(___ftpack@arg+2),w
  5693  06FD  1D03               	btfss	status,2
  5694  06FE  2F00               	goto	u4031
  5695  06FF  2F01               	goto	u4030
  5696  0700                     u4031:
  5697  0700  2EE5               	goto	l5876
  5698  0701                     u4030:
  5699  0701  2F0E               	goto	l5884
  5700                           	
  5701  0702                     l3439:	
  5702                           	line	75
  5703  0702  2F0E               	goto	l5884
  5704                           	
  5705  0703                     l3441:	
  5706                           	line	76
  5707                           	
  5708  0703                     l5882:	
  5709  0703  3001               	movlw	low(01h)
  5710  0704  02A3               	subwf	(___ftpack@exp),f
  5711                           	line	77
  5712  0705  3001               	movlw	01h
  5713  0706                     u4045:
  5714  0706  1003               	clrc
  5715  0707  0DA0               	rlf	(___ftpack@arg),f
  5716  0708  0DA1               	rlf	(___ftpack@arg+1),f
  5717  0709  0DA2               	rlf	(___ftpack@arg+2),f
  5718  070A  3EFF               	addlw	-1
  5719  070B  1D03               	skipz
  5720  070C  2F06               	goto	u4045
  5721  070D  2F0E               	goto	l5884
  5722                           	line	78
  5723                           	
  5724  070E                     l3440:	
  5725                           	line	75
  5726                           	
  5727  070E                     l5884:	
  5728  070E  1FA1               	btfss	(___ftpack@arg+1),(15)&7
  5729  070F  2F11               	goto	u4051
  5730  0710  2F12               	goto	u4050
  5731  0711                     u4051:
  5732  0711  2F03               	goto	l5882
  5733  0712                     u4050:
  5734                           	
  5735  0712                     l3442:	
  5736                           	line	79
  5737  0712  1823               	btfsc	(___ftpack@exp),(0)&7
  5738  0713  2F15               	goto	u4061
  5739  0714  2F16               	goto	u4060
  5740  0715                     u4061:
  5741  0715  2F1C               	goto	l3443
  5742  0716                     u4060:
  5743                           	line	80
  5744                           	
  5745  0716                     l5886:	
  5746  0716  30FF               	movlw	0FFh
  5747  0717  05A0               	andwf	(___ftpack@arg),f
  5748  0718  307F               	movlw	07Fh
  5749  0719  05A1               	andwf	(___ftpack@arg+1),f
  5750  071A  30FF               	movlw	0FFh
  5751  071B  05A2               	andwf	(___ftpack@arg+2),f
  5752                           	
  5753  071C                     l3443:	
  5754                           	line	81
  5755  071C  1003               	clrc
  5756  071D  0CA3               	rrf	(___ftpack@exp),f
  5757                           
  5758                           	line	82
  5759                           	
  5760  071E                     l5888:	
  5761  071E  0823               	movf	(___ftpack@exp),w
  5762  071F  00A5               	movwf	((??___ftpack+0)+0)
  5763  0720  01A6               	clrf	((??___ftpack+0)+0+1)
  5764  0721  01A7               	clrf	((??___ftpack+0)+0+2)
  5765  0722  3010               	movlw	010h
  5766  0723                     u4075:
  5767  0723  1003               	clrc
  5768  0724  0DA5               	rlf	(??___ftpack+0)+0,f
  5769  0725  0DA6               	rlf	(??___ftpack+0)+1,f
  5770  0726  0DA7               	rlf	(??___ftpack+0)+2,f
  5771  0727                     u4070:
  5772  0727  3EFF               	addlw	-1
  5773  0728  1D03               	skipz
  5774  0729  2F23               	goto	u4075
  5775  072A  0825               	movf	0+(??___ftpack+0)+0,w
  5776  072B  04A0               	iorwf	(___ftpack@arg),f
  5777  072C  0826               	movf	1+(??___ftpack+0)+0,w
  5778  072D  04A1               	iorwf	(___ftpack@arg+1),f
  5779  072E  0827               	movf	2+(??___ftpack+0)+0,w
  5780  072F  04A2               	iorwf	(___ftpack@arg+2),f
  5781                           	line	83
  5782                           	
  5783  0730                     l5890:	
  5784  0730  0824               	movf	(___ftpack@sign),w
  5785  0731  1D03               	skipz
  5786  0732  2F34               	goto	u4080
  5787  0733  2F35               	goto	l3444
  5788  0734                     u4080:
  5789                           	line	84
  5790                           	
  5791  0734                     l5892:	
  5792  0734  17A2               	bsf	(___ftpack@arg)+(23/8),(23)&7
  5793                           	
  5794  0735                     l3444:	
  5795                           	line	85
  5796                           	line	86
  5797                           	
  5798  0735                     l3433:	
  5799  0735  0008               	return
  5800                           	opt stack 0
  5801                           GLOBAL	__end_of___ftpack
  5802  0736                     	__end_of___ftpack:
  5803 ;; =============== function ___ftpack ends ============
  5804                           
  5805                           	signat	___ftpack,12411
  5806                           	global	_setup_adc
  5807                           psect	text1000,local,class=CODE,delta=2
  5808                           global __ptext1000
  5809  0015                     __ptext1000:
  5810                           
  5811 ;; *************** function _setup_adc *****************
  5812 ;; Defined at:
  5813 ;;		line 35 in file "../mylibs/adc/adc.c"
  5814 ;; Parameters:    Size  Location     Type
  5815 ;;  cfg_mask1       1    wreg     unsigned char 
  5816 ;; Auto vars:     Size  Location     Type
  5817 ;;  cfg_mask1       1    4[BANK0 ] unsigned char 
  5818 ;;  tmp             2    2[BANK0 ] unsigned int 
  5819 ;; Return value:  Size  Location     Type
  5820 ;;		None               void
  5821 ;; Registers used:
  5822 ;;		wreg, status,2, status,0
  5823 ;; Tracked objects:
  5824 ;;		On entry : 0/0
  5825 ;;		On exit  : 0/0
  5826 ;;		Unchanged: 0/0
  5827 ;; Data sizes:     COMMON   BANK0   BANK1   BANK3   BANK2
  5828 ;;      Params:         0       0       0       0       0
  5829 ;;      Locals:         0       3       0       0       0
  5830 ;;      Temps:          0       2       0       0       0
  5831 ;;      Totals:         0       5       0       0       0
  5832 ;;Total ram usage:        5 bytes
  5833 ;; Hardware stack levels used:    1
  5834 ;; Hardware stack levels required when called:    1
  5835 ;; This function calls:
  5836 ;;		Nothing
  5837 ;; This function is called by:
  5838 ;;		_init_pic
  5839 ;; This function uses a non-reentrant model
  5840 ;;
  5841                           psect	text1000
  5842                           	file	"../mylibs/adc/adc.c"
  5843                           	line	35
  5844                           	global	__size_of_setup_adc
  5845  0058                     	__size_of_setup_adc	equ	__end_of_setup_adc-_setup_adc
  5846                           	
  5847  0015                     _setup_adc:	
  5848                           	opt	stack 5
  5849                           ; Regs used in _setup_adc: [wreg+status,2+status,0]
  5850                           ;setup_adc@cfg_mask1 stored from wreg
  5851                           	line	44
  5852  0015  1283               	bcf	status, 5	;RP0=0, select bank0
  5853  0016  1303               	bcf	status, 6	;RP1=0, select bank0
  5854  0017  00A4               	movwf	(setup_adc@cfg_mask1)
  5855                           	
  5856  0018                     l5842:	
  5857                           ;adc.c: 37: unsigned tmp;
  5858                           ;adc.c: 44: ADCON0 = 0b11000000 & cfg_mask1;
  5859  0018  0824               	movf	(setup_adc@cfg_mask1),w
  5860  0019  39C0               	andlw	0C0h
  5861  001A  009F               	movwf	(31)	;volatile
  5862                           	line	46
  5863                           	
  5864  001B                     l5844:	
  5865                           ;adc.c: 46: ADCON1 = ((0b00100000 & cfg_mask1)<<2)+(0b00001111 & cfg_mask1);
  5866  001B  0824               	movf	(setup_adc@cfg_mask1),w
  5867  001C  3920               	andlw	020h
  5868  001D  00A0               	movwf	(??_setup_adc+0)+0
  5869  001E  3002               	movlw	02h
  5870  001F                     u3955:
  5871  001F  1003               	clrc
  5872  0020  0DA0               	rlf	(??_setup_adc+0)+0,f
  5873  0021  3EFF               	addlw	-1
  5874  0022  1D03               	skipz
  5875  0023  281F               	goto	u3955
  5876  0024  0824               	movf	(setup_adc@cfg_mask1),w
  5877  0025  390F               	andlw	0Fh
  5878  0026  0720               	addwf	0+(??_setup_adc+0)+0,w
  5879  0027  1683               	bsf	status, 5	;RP0=1, select bank1
  5880  0028  1303               	bcf	status, 6	;RP1=0, select bank1
  5881  0029  009F               	movwf	(159)^080h	;volatile
  5882                           	line	48
  5883                           	
  5884  002A                     l5846:	
  5885                           ;adc.c: 48: if(!(0b00100000 & cfg_mask1))
  5886  002A  1283               	bcf	status, 5	;RP0=0, select bank0
  5887  002B  1303               	bcf	status, 6	;RP1=0, select bank0
  5888  002C  1AA4               	btfsc	(setup_adc@cfg_mask1),(5)&7
  5889  002D  282F               	goto	u3961
  5890  002E  2830               	goto	u3960
  5891  002F                     u3961:
  5892  002F  2835               	goto	l5850
  5893  0030                     u3960:
  5894                           	line	49
  5895                           	
  5896  0030                     l5848:	
  5897                           ;adc.c: 49: result_adc = &(result_left);
  5898  0030  3001               	movlw	((fp__result_left-fpbase))&0ffh
  5899  0031  00A0               	movwf	(??_setup_adc+0)+0
  5900  0032  0820               	movf	(??_setup_adc+0)+0,w
  5901  0033  00E6               	movwf	(_result_adc)
  5902  0034  283A               	goto	l5852
  5903                           	line	50
  5904                           	
  5905  0035                     l1224:	
  5906                           	line	51
  5907                           	
  5908  0035                     l5850:	
  5909                           ;adc.c: 50: else
  5910                           ;adc.c: 51: result_adc = &(result_right);
  5911  0035  3004               	movlw	((fp__result_right-fpbase))&0ffh
  5912  0036  00A0               	movwf	(??_setup_adc+0)+0
  5913  0037  0820               	movf	(??_setup_adc+0)+0,w
  5914  0038  00E6               	movwf	(_result_adc)
  5915  0039  283A               	goto	l5852
  5916                           	
  5917  003A                     l1225:	
  5918                           	line	53
  5919                           	
  5920  003A                     l5852:	
  5921                           ;adc.c: 53: if( 0b00010000 & cfg_mask1)
  5922  003A  1E24               	btfss	(setup_adc@cfg_mask1),(4)&7
  5923  003B  283D               	goto	u3971
  5924  003C  283E               	goto	u3970
  5925  003D                     u3971:
  5926  003D  284F               	goto	l5858
  5927  003E                     u3970:
  5928                           	line	55
  5929                           	
  5930  003E                     l5854:	
  5931                           ;adc.c: 54: {
  5932                           ;adc.c: 55: tmp = PIE1 & 0b10111111;
  5933  003E  1683               	bsf	status, 5	;RP0=1, select bank1
  5934  003F  1303               	bcf	status, 6	;RP1=0, select bank1
  5935  0040  080C               	movf	(140)^080h,w
  5936  0041  39BF               	andlw	0BFh
  5937  0042  1283               	bcf	status, 5	;RP0=0, select bank0
  5938  0043  1303               	bcf	status, 6	;RP1=0, select bank0
  5939  0044  00A0               	movwf	(??_setup_adc+0)+0
  5940  0045  01A1               	clrf	(??_setup_adc+0)+0+1
  5941  0046  0820               	movf	0+(??_setup_adc+0)+0,w
  5942  0047  00A2               	movwf	(setup_adc@tmp)
  5943  0048  0821               	movf	1+(??_setup_adc+0)+0,w
  5944  0049  00A3               	movwf	(setup_adc@tmp+1)
  5945                           	line	56
  5946                           	
  5947  004A                     l5856:	
  5948                           ;adc.c: 56: PIE1 = tmp & 0b11111111;
  5949  004A  0822               	movf	(setup_adc@tmp),w
  5950  004B  1683               	bsf	status, 5	;RP0=1, select bank1
  5951  004C  1303               	bcf	status, 6	;RP1=0, select bank1
  5952  004D  008C               	movwf	(140)^080h	;volatile
  5953                           	line	57
  5954                           ;adc.c: 57: }
  5955  004E  2860               	goto	l5862
  5956                           	line	58
  5957                           	
  5958  004F                     l1226:	
  5959                           	line	60
  5960                           	
  5961  004F                     l5858:	
  5962                           ;adc.c: 58: else
  5963                           ;adc.c: 59: {
  5964                           ;adc.c: 60: tmp = PIE1 & 0b10111111;
  5965  004F  1683               	bsf	status, 5	;RP0=1, select bank1
  5966  0050  1303               	bcf	status, 6	;RP1=0, select bank1
  5967  0051  080C               	movf	(140)^080h,w
  5968  0052  39BF               	andlw	0BFh
  5969  0053  1283               	bcf	status, 5	;RP0=0, select bank0
  5970  0054  1303               	bcf	status, 6	;RP1=0, select bank0
  5971  0055  00A0               	movwf	(??_setup_adc+0)+0
  5972  0056  01A1               	clrf	(??_setup_adc+0)+0+1
  5973  0057  0820               	movf	0+(??_setup_adc+0)+0,w
  5974  0058  00A2               	movwf	(setup_adc@tmp)
  5975  0059  0821               	movf	1+(??_setup_adc+0)+0,w
  5976  005A  00A3               	movwf	(setup_adc@tmp+1)
  5977                           	line	61
  5978                           	
  5979  005B                     l5860:	
  5980                           ;adc.c: 61: PIE1 = tmp;
  5981  005B  0822               	movf	(setup_adc@tmp),w
  5982  005C  1683               	bsf	status, 5	;RP0=1, select bank1
  5983  005D  1303               	bcf	status, 6	;RP1=0, select bank1
  5984  005E  008C               	movwf	(140)^080h	;volatile
  5985  005F  2860               	goto	l5862
  5986                           	line	62
  5987                           	
  5988  0060                     l1227:	
  5989                           	line	64
  5990                           	
  5991  0060                     l5862:	
  5992                           ;adc.c: 62: }
  5993                           ;adc.c: 64: tmp = PIR1 & 0b10111111;
  5994  0060  1283               	bcf	status, 5	;RP0=0, select bank0
  5995  0061  1303               	bcf	status, 6	;RP1=0, select bank0
  5996  0062  080C               	movf	(12),w
  5997  0063  39BF               	andlw	0BFh
  5998  0064  00A0               	movwf	(??_setup_adc+0)+0
  5999  0065  01A1               	clrf	(??_setup_adc+0)+0+1
  6000  0066  0820               	movf	0+(??_setup_adc+0)+0,w
  6001  0067  00A2               	movwf	(setup_adc@tmp)
  6002  0068  0821               	movf	1+(??_setup_adc+0)+0,w
  6003  0069  00A3               	movwf	(setup_adc@tmp+1)
  6004                           	line	65
  6005                           ;adc.c: 65: PIR1 = tmp;
  6006  006A  0822               	movf	(setup_adc@tmp),w
  6007  006B  008C               	movwf	(12)	;volatile
  6008                           	line	67
  6009                           	
  6010  006C                     l1228:	
  6011  006C  0008               	return
  6012                           	opt stack 0
  6013                           GLOBAL	__end_of_setup_adc
  6014  006D                     	__end_of_setup_adc:
  6015 ;; =============== function _setup_adc ends ============
  6016                           
  6017                           	signat	_setup_adc,4216
  6018                           	global	_result_left
  6019                           	global	_result_right
  6020                           psect	text1001,local,class=CODE,delta=2
  6021                           global __ptext1001
  6022  0E4B                     __ptext1001:
  6023                           
  6024 ;; *************** function _result_right *****************
  6025 ;; Defined at:
  6026 ;;		line 12 in file "../mylibs/adc/adc.c"
  6027 ;; Parameters:    Size  Location     Type
  6028 ;;		None
  6029 ;; Auto vars:     Size  Location     Type
  6030 ;;  readval         2    4[BANK0 ] unsigned int 
  6031 ;; Return value:  Size  Location     Type
  6032 ;;                  2    0[BANK0 ] unsigned int 
  6033 ;; Registers used:
  6034 ;;		wreg, status,2, status,0, btemp+1
  6035 ;; Tracked objects:
  6036 ;;		On entry : 0/0
  6037 ;;		On exit  : 0/0
  6038 ;;		Unchanged: 0/0
  6039 ;; Data sizes:     COMMON   BANK0   BANK1   BANK3   BANK2
  6040 ;;      Params:         0       2       0       0       0
  6041 ;;      Locals:         0       2       0       0       0
  6042 ;;      Temps:          0       2       0       0       0
  6043 ;;      Totals:         0       6       0       0       0
  6044 ;;Total ram usage:        6 bytes
  6045 ;; Hardware stack levels used:    1
  6046 ;; Hardware stack levels required when called:    1
  6047 ;; This function calls:
  6048 ;;		Nothing
  6049 ;; This function is called by:
  6050 ;;		_setup_adc
  6051 ;;		_read_adc
  6052 ;; This function uses a non-reentrant model
  6053 ;;
  6054                           psect	text1001
  6055                           	file	"../mylibs/adc/adc.c"
  6056                           	line	12
  6057                           	global	__size_of_result_right
  6058  001F                     	__size_of_result_right	equ	__end_of_result_right-_result_right
  6059                           	
  6060  0E4B                     _result_right:	
  6061                           	opt	stack 5
  6062                           ; Regs used in _result_right: [wreg+status,2+status,0+btemp+1]
  6063                           	line	15
  6064                           	
  6065  0E4B                     l5826:	
  6066                           ;adc.c: 13: unsigned int readval;
  6067                           ;adc.c: 15: readval = ADRESH * 256;
  6068  0E4B  1283               	bcf	status, 5	;RP0=0, select bank0
  6069  0E4C  1303               	bcf	status, 6	;RP1=0, select bank0
  6070  0E4D  081E               	movf	(30),w	;volatile
  6071  0E4E  00A2               	movwf	(??_result_right+0)+0
  6072  0E4F  01A3               	clrf	(??_result_right+0)+0+1
  6073  0E50  0822               	movf	(??_result_right+0)+0,w
  6074  0E51  00A3               	movwf	(??_result_right+0)+1
  6075  0E52  01A2               	clrf	(??_result_right+0)+0
  6076  0E53  0822               	movf	0+(??_result_right+0)+0,w
  6077  0E54  00A4               	movwf	(result_right@readval)
  6078  0E55  0823               	movf	1+(??_result_right+0)+0,w
  6079  0E56  00A5               	movwf	(result_right@readval+1)
  6080                           	line	16
  6081                           	
  6082  0E57                     l5828:	
  6083                           ;adc.c: 16: readval = readval + ADRESL;
  6084  0E57  1683               	bsf	status, 5	;RP0=1, select bank1
  6085  0E58  1303               	bcf	status, 6	;RP1=0, select bank1
  6086  0E59  081E               	movf	(158)^080h,w	;volatile
  6087  0E5A  1283               	bcf	status, 5	;RP0=0, select bank0
  6088  0E5B  1303               	bcf	status, 6	;RP1=0, select bank0
  6089  0E5C  0724               	addwf	(result_right@readval),w
  6090  0E5D  00A4               	movwf	(result_right@readval)
  6091  0E5E  0825               	movf	(result_right@readval+1),w
  6092  0E5F  1803               	skipnc
  6093  0E60  0A25               	incf	(result_right@readval+1),w
  6094  0E61  00A5               	movwf	((result_right@readval))+1
  6095                           	line	18
  6096                           	
  6097  0E62                     l5830:	
  6098                           ;adc.c: 18: return readval;
  6099  0E62  0825               	movf	(result_right@readval+1),w
  6100  0E63  01A1               	clrf	(?_result_right+1)
  6101  0E64  07A1               	addwf	(?_result_right+1)
  6102  0E65  0824               	movf	(result_right@readval),w
  6103  0E66  01A0               	clrf	(?_result_right)
  6104  0E67  07A0               	addwf	(?_result_right)
  6105                           
  6106  0E68  2E69               	goto	l1218
  6107                           	
  6108  0E69                     l5832:	
  6109                           	line	19
  6110                           	
  6111  0E69                     l1218:	
  6112  0E69  0008               	return
  6113                           	opt stack 0
  6114                           GLOBAL	__end_of_result_right
  6115  0E6A                     	__end_of_result_right:
  6116 ;; =============== function _result_right ends ============
  6117                           
  6118                           	signat	_result_right,90
  6119                           psect	text1002,local,class=CODE,delta=2
  6120                           global __ptext1002
  6121  0EF9                     __ptext1002:
  6122                           
  6123 ;; *************** function _result_left *****************
  6124 ;; Defined at:
  6125 ;;		line 24 in file "../mylibs/adc/adc.c"
  6126 ;; Parameters:    Size  Location     Type
  6127 ;;		None
  6128 ;; Auto vars:     Size  Location     Type
  6129 ;;  readval         2    4[BANK0 ] unsigned int 
  6130 ;; Return value:  Size  Location     Type
  6131 ;;                  2    0[BANK0 ] unsigned int 
  6132 ;; Registers used:
  6133 ;;		wreg, status,2, status,0, btemp+1
  6134 ;; Tracked objects:
  6135 ;;		On entry : 0/0
  6136 ;;		On exit  : 0/0
  6137 ;;		Unchanged: 0/0
  6138 ;; Data sizes:     COMMON   BANK0   BANK1   BANK3   BANK2
  6139 ;;      Params:         0       2       0       0       0
  6140 ;;      Locals:         0       2       0       0       0
  6141 ;;      Temps:          0       2       0       0       0
  6142 ;;      Totals:         0       6       0       0       0
  6143 ;;Total ram usage:        6 bytes
  6144 ;; Hardware stack levels used:    1
  6145 ;; Hardware stack levels required when called:    1
  6146 ;; This function calls:
  6147 ;;		Nothing
  6148 ;; This function is called by:
  6149 ;;		_setup_adc
  6150 ;;		_read_adc
  6151 ;; This function uses a non-reentrant model
  6152 ;;
  6153                           psect	text1002
  6154                           	file	"../mylibs/adc/adc.c"
  6155                           	line	24
  6156                           	global	__size_of_result_left
  6157  0027                     	__size_of_result_left	equ	__end_of_result_left-_result_left
  6158                           	
  6159  0EF9                     _result_left:	
  6160                           	opt	stack 5
  6161                           ; Regs used in _result_left: [wreg+status,2+status,0+btemp+1]
  6162                           	line	27
  6163                           	
  6164  0EF9                     l5834:	
  6165                           ;adc.c: 25: unsigned int readval;
  6166                           ;adc.c: 27: readval = ADRESH * 256;
  6167  0EF9  1283               	bcf	status, 5	;RP0=0, select bank0
  6168  0EFA  1303               	bcf	status, 6	;RP1=0, select bank0
  6169  0EFB  081E               	movf	(30),w	;volatile
  6170  0EFC  00A2               	movwf	(??_result_left+0)+0
  6171  0EFD  01A3               	clrf	(??_result_left+0)+0+1
  6172  0EFE  0822               	movf	(??_result_left+0)+0,w
  6173  0EFF  00A3               	movwf	(??_result_left+0)+1
  6174  0F00  01A2               	clrf	(??_result_left+0)+0
  6175  0F01  0822               	movf	0+(??_result_left+0)+0,w
  6176  0F02  00A4               	movwf	(result_left@readval)
  6177  0F03  0823               	movf	1+(??_result_left+0)+0,w
  6178  0F04  00A5               	movwf	(result_left@readval+1)
  6179                           	line	28
  6180                           	
  6181  0F05                     l5836:	
  6182                           ;adc.c: 28: readval = readval + (ADRESL>>6);
  6183  0F05  1683               	bsf	status, 5	;RP0=1, select bank1
  6184  0F06  1303               	bcf	status, 6	;RP1=0, select bank1
  6185  0F07  081E               	movf	(158)^080h,w	;volatile
  6186  0F08  1283               	bcf	status, 5	;RP0=0, select bank0
  6187  0F09  1303               	bcf	status, 6	;RP1=0, select bank0
  6188  0F0A  00A2               	movwf	(??_result_left+0)+0
  6189  0F0B  3006               	movlw	06h
  6190  0F0C                     u3945:
  6191  0F0C  1003               	clrc
  6192  0F0D  0CA2               	rrf	(??_result_left+0)+0,f
  6193  0F0E  3EFF               	addlw	-1
  6194  0F0F  1D03               	skipz
  6195  0F10  2F0C               	goto	u3945
  6196  0F11  0822               	movf	0+(??_result_left+0)+0,w
  6197  0F12  0724               	addwf	(result_left@readval),w
  6198  0F13  00A4               	movwf	(result_left@readval)
  6199  0F14  0825               	movf	(result_left@readval+1),w
  6200  0F15  1803               	skipnc
  6201  0F16  0A25               	incf	(result_left@readval+1),w
  6202  0F17  00A5               	movwf	((result_left@readval))+1
  6203                           	line	30
  6204                           	
  6205  0F18                     l5838:	
  6206                           ;adc.c: 30: return readval;
  6207  0F18  0825               	movf	(result_left@readval+1),w
  6208  0F19  01A1               	clrf	(?_result_left+1)
  6209  0F1A  07A1               	addwf	(?_result_left+1)
  6210  0F1B  0824               	movf	(result_left@readval),w
  6211  0F1C  01A0               	clrf	(?_result_left)
  6212  0F1D  07A0               	addwf	(?_result_left)
  6213                           
  6214  0F1E  2F1F               	goto	l1221
  6215                           	
  6216  0F1F                     l5840:	
  6217                           	line	31
  6218                           	
  6219  0F1F                     l1221:	
  6220  0F1F  0008               	return
  6221                           	opt stack 0
  6222                           GLOBAL	__end_of_result_left
  6223  0F20                     	__end_of_result_left:
  6224 ;; =============== function _result_left ends ============
  6225                           
  6226                           	signat	_result_left,90
  6227                           	global	_int_call
  6228                           psect	text1003,local,class=CODE,delta=2
  6229                           global __ptext1003
  6230  0FAF                     __ptext1003:
  6231                           
  6232 ;; *************** function _int_call *****************
  6233 ;; Defined at:
  6234 ;;		line 14 in file "main.c"
  6235 ;; Parameters:    Size  Location     Type
  6236 ;;		None
  6237 ;; Auto vars:     Size  Location     Type
  6238 ;;		None
  6239 ;; Return value:  Size  Location     Type
  6240 ;;		None               void
  6241 ;; Registers used:
  6242 ;;		wreg, status,2
  6243 ;; Tracked objects:
  6244 ;;		On entry : 0/0
  6245 ;;		On exit  : 0/0
  6246 ;;		Unchanged: 0/0
  6247 ;; Data sizes:     COMMON   BANK0   BANK1   BANK3   BANK2
  6248 ;;      Params:         0       0       0       0       0
  6249 ;;      Locals:         0       0       0       0       0
  6250 ;;      Temps:          5       0       0       0       0
  6251 ;;      Totals:         5       0       0       0       0
  6252 ;;Total ram usage:        5 bytes
  6253 ;; Hardware stack levels used:    1
  6254 ;; This function calls:
  6255 ;;		Nothing
  6256 ;; This function is called by:
  6257 ;;		Interrupt level 1
  6258 ;; This function uses a non-reentrant model
  6259 ;;
  6260                           psect	text1003
  6261                           	file	"main.c"
  6262                           	line	14
  6263                           	global	__size_of_int_call
  6264  0051                     	__size_of_int_call	equ	__end_of_int_call-_int_call
  6265                           	
  6266  0FAF                     _int_call:	
  6267                           	opt	stack 2
  6268                           ; Regs used in _int_call: [wreg+status,2]
  6269                           psect	intentry,class=CODE,delta=2
  6270                           global __pintentry
  6271  0004                     __pintentry:
  6272                           global interrupt_function
  6273  0004                     interrupt_function:
  6274                           	global saved_w
  6275  007E                     	saved_w	set	btemp+0
  6276  0004  00FE               	movwf	saved_w
  6277  0005  0E03               	swapf	status,w
  6278  0006  00F1               	movwf	(??_int_call+1)
  6279  0007  0804               	movf	fsr0,w
  6280  0008  00F2               	movwf	(??_int_call+2)
  6281  0009  080A               	movf	pclath,w
  6282  000A  00F3               	movwf	(??_int_call+3)
  6283  000B  1283               	bcf	status, 5	;RP0=0, select bank0
  6284  000C  1303               	bcf	status, 6	;RP1=0, select bank0
  6285  000D  087F               	movf	btemp+1,w
  6286  000E  00F4               	movwf	(??_int_call+4)
  6287  000F  120A  158A  2FAF   	ljmp	_int_call
  6288                           psect	text1003
  6289                           	line	17
  6290                           	
  6291  0FAF                     i1l5144:	
  6292                           ;main.c: 17: if(T0IE && T0IF)
  6293  0FAF  1E8B               	btfss	(93/8),(93)&7
  6294  0FB0  2FB2               	goto	u277_21
  6295  0FB1  2FB3               	goto	u277_20
  6296  0FB2                     u277_21:
  6297  0FB2  2FDC               	goto	i1l5162
  6298  0FB3                     u277_20:
  6299                           	
  6300  0FB3                     i1l5146:	
  6301  0FB3  1D0B               	btfss	(90/8),(90)&7
  6302  0FB4  2FB6               	goto	u278_21
  6303  0FB5  2FB7               	goto	u278_20
  6304  0FB6                     u278_21:
  6305  0FB6  2FDC               	goto	i1l5162
  6306  0FB7                     u278_20:
  6307                           	line	19
  6308                           	
  6309  0FB7                     i1l5148:	
  6310                           ;main.c: 18: {
  6311                           ;main.c: 19: T0IF = 0;
  6312  0FB7  110B               	bcf	(90/8),(90)&7
  6313                           	line	20
  6314                           ;main.c: 20: T0IE = 0;
  6315  0FB8  128B               	bcf	(93/8),(93)&7
  6316                           	line	22
  6317                           	
  6318  0FB9                     i1l5150:	
  6319                           ;main.c: 22: counter_pwm++;
  6320  0FB9  3001               	movlw	low(01h)
  6321  0FBA  07DD               	addwf	(_counter_pwm),f
  6322  0FBB  1803               	skipnc
  6323  0FBC  0ADE               	incf	(_counter_pwm+1),f
  6324  0FBD  3000               	movlw	high(01h)
  6325  0FBE  07DE               	addwf	(_counter_pwm+1),f
  6326                           	line	24
  6327                           ;main.c: 24: if(counter_pwm > duty_value)
  6328  0FBF  085E               	movf	(_counter_pwm+1),w
  6329  0FC0  0276               	subwf	(_duty_value+1),w
  6330  0FC1  1D03               	skipz
  6331  0FC2  2FC5               	goto	u279_25
  6332  0FC3  085D               	movf	(_counter_pwm),w
  6333  0FC4  0275               	subwf	(_duty_value),w
  6334  0FC5                     u279_25:
  6335  0FC5  1803               	skipnc
  6336  0FC6  2FC8               	goto	u279_21
  6337  0FC7  2FC9               	goto	u279_20
  6338  0FC8                     u279_21:
  6339  0FC8  2FCB               	goto	i1l5154
  6340  0FC9                     u279_20:
  6341                           	line	26
  6342                           	
  6343  0FC9                     i1l5152:	
  6344                           ;main.c: 25: {
  6345                           ;main.c: 26: RA2 = 0;
  6346  0FC9  1105               	bcf	(42/8),(42)&7
  6347                           	line	27
  6348                           ;main.c: 27: }else if( counter_pwm > pwm_period)
  6349  0FCA  2FDA               	goto	i1l5160
  6350                           	
  6351  0FCB                     i1l2498:	
  6352                           	
  6353  0FCB                     i1l5154:	
  6354  0FCB  085E               	movf	(_counter_pwm+1),w
  6355  0FCC  026B               	subwf	(_pwm_period+1),w
  6356  0FCD  1D03               	skipz
  6357  0FCE  2FD1               	goto	u280_25
  6358  0FCF  085D               	movf	(_counter_pwm),w
  6359  0FD0  026A               	subwf	(_pwm_period),w
  6360  0FD1                     u280_25:
  6361  0FD1  1803               	skipnc
  6362  0FD2  2FD4               	goto	u280_21
  6363  0FD3  2FD5               	goto	u280_20
  6364  0FD4                     u280_21:
  6365  0FD4  2FDA               	goto	i1l5160
  6366  0FD5                     u280_20:
  6367                           	line	29
  6368                           	
  6369  0FD5                     i1l5156:	
  6370                           ;main.c: 28: {
  6371                           ;main.c: 29: RA2 = 1;
  6372  0FD5  1505               	bsf	(42/8),(42)&7
  6373                           	line	30
  6374                           	
  6375  0FD6                     i1l5158:	
  6376                           ;main.c: 30: counter_pwm = 0;
  6377  0FD6  01DD               	clrf	(_counter_pwm)
  6378  0FD7  01DE               	clrf	(_counter_pwm+1)
  6379  0FD8  2FDA               	goto	i1l5160
  6380                           	line	31
  6381                           	
  6382  0FD9                     i1l2500:	
  6383  0FD9  2FDA               	goto	i1l5160
  6384                           	line	33
  6385                           	
  6386  0FDA                     i1l2499:	
  6387                           	
  6388  0FDA                     i1l5160:	
  6389                           ;main.c: 31: }
  6390                           ;main.c: 33: T0IE = 1;
  6391  0FDA  168B               	bsf	(93/8),(93)&7
  6392  0FDB  2FDC               	goto	i1l5162
  6393                           	line	34
  6394                           	
  6395  0FDC                     i1l2497:	
  6396                           	line	37
  6397                           	
  6398  0FDC                     i1l5162:	
  6399                           ;main.c: 34: }
  6400                           ;main.c: 37: if(INTE && INTF)
  6401  0FDC  1E0B               	btfss	(92/8),(92)&7
  6402  0FDD  2FDF               	goto	u281_21
  6403  0FDE  2FE0               	goto	u281_20
  6404  0FDF                     u281_21:
  6405  0FDF  2FF5               	goto	i1l2502
  6406  0FE0                     u281_20:
  6407                           	
  6408  0FE0                     i1l5164:	
  6409  0FE0  1C8B               	btfss	(89/8),(89)&7
  6410  0FE1  2FE3               	goto	u282_21
  6411  0FE2  2FE4               	goto	u282_20
  6412  0FE3                     u282_21:
  6413  0FE3  2FF5               	goto	i1l2502
  6414  0FE4                     u282_20:
  6415                           	line	39
  6416                           	
  6417  0FE4                     i1l5166:	
  6418                           ;main.c: 38: {
  6419                           ;main.c: 39: INTE = 0;
  6420  0FE4  120B               	bcf	(92/8),(92)&7
  6421                           	line	40
  6422                           ;main.c: 40: INTF = 0;
  6423  0FE5  108B               	bcf	(89/8),(89)&7
  6424                           	line	42
  6425                           	
  6426  0FE6                     i1l5168:	
  6427                           ;main.c: 42: INTEDG = !INTEDG;
  6428  0FE6  3040               	movlw	1<<((1038)&7)
  6429  0FE7  1683               	bsf	status, 5	;RP0=1, select bank1
  6430  0FE8  1303               	bcf	status, 6	;RP1=0, select bank1
  6431  0FE9  0681               	xorwf	((1038)/8)^080h,f
  6432                           	line	43
  6433                           ;main.c: 43: man_auto = !man_auto;
  6434  0FEA  1283               	bcf	status, 5	;RP0=0, select bank0
  6435  0FEB  1303               	bcf	status, 6	;RP1=0, select bank0
  6436  0FEC  08E2               	movf	(_man_auto)
  6437  0FED  3000               	movlw	0
  6438  0FEE  1903               	skipnz
  6439  0FEF  3001               	movlw	1
  6440  0FF0  00F0               	movwf	(??_int_call+0)+0
  6441  0FF1  0870               	movf	(??_int_call+0)+0,w
  6442  0FF2  00E2               	movwf	(_man_auto)
  6443                           	line	45
  6444                           	
  6445  0FF3                     i1l5170:	
  6446                           ;main.c: 45: INTE = 1;
  6447  0FF3  160B               	bsf	(92/8),(92)&7
  6448  0FF4  2FF5               	goto	i1l2502
  6449                           	line	46
  6450                           	
  6451  0FF5                     i1l2501:	
  6452                           	line	48
  6453                           	
  6454  0FF5                     i1l2502:	
  6455  0FF5  0874               	movf	(??_int_call+4),w
  6456  0FF6  00FF               	movwf	btemp+1
  6457  0FF7  0873               	movf	(??_int_call+3),w
  6458  0FF8  008A               	movwf	pclath
  6459  0FF9  0872               	movf	(??_int_call+2),w
  6460  0FFA  0084               	movwf	fsr0
  6461  0FFB  0E71               	swapf	(??_int_call+1)^0FFFFFF80h,w
  6462  0FFC  0083               	movwf	status
  6463  0FFD  0EFE               	swapf	saved_w,f
  6464  0FFE  0E7E               	swapf	saved_w,w
  6465  0FFF  0009               	retfie
  6466                           	opt stack 0
  6467                           GLOBAL	__end_of_int_call
  6468  1000                     	__end_of_int_call:
  6469 ;; =============== function _int_call ends ============
  6470                           
  6471                           	signat	_int_call,88
  6472                           	global	fptotal
  6473  0004                     fptotal equ 4
  6474                           	file ""
  6475                           	line	#
  6476                           psect	functab,class=CODE,delta=2,reloc=256
  6477                           global __pfunctab
  6478  0100                     __pfunctab:
  6479                           	global	fptable
  6480  0100                     fptable:
  6481  0100  00FF               	movwf (btemp+1)&07Fh
  6482  0101  3001               	movlw high(fptable)
  6483  0102  008A               	movwf pclath
  6484  0103  087F               	movf (btemp+1)&07Fh,w
  6485  0104  0782               	addwf pc
  6486                           	global	fpbase
  6487  0105                     fpbase:
  6488  0105  2905               	goto fpbase	; Call via a null pointer and you will get stuck here.
  6489                           	file ""
  6490                           	line	#
  6491  0106                     fp__result_left:
  6492  0106  120A  158A  2EF9   	ljmp	_result_left
  6493                           	file ""
  6494                           	line	#
  6495  0109                     fp__result_right:
  6496  0109  120A  158A  2E4B   	ljmp	_result_right
  6497                           psect	strings,class=STRING,delta=2
  6498                           global __pstrings
  6499  0800                     __pstrings:
  6500                           ;	global	stringtab,__stringbase
  6501  0800                     stringtab:
  6502                           ;	String table - string pointers are 2 bytes each
  6503  0800  1BFF               	btfsc	(btemp+1),7
  6504  0801  280A               	ljmp	stringcode
  6505  0802  1383               	bcf	status,7
  6506  0803  187F               	btfsc	(btemp+1),0
  6507  0804  1783               	bsf	status,7
  6508  0805  0800               	movf	indf,w
  6509  0806  0A84               	incf fsr
  6510  0807  1903               skipnz
  6511  0808  0AFF               incf btemp+1
  6512  0809  0008               	return
  6513  080A                     stringcode:
  6514  080A  087F               	movf btemp+1,w
  6515  080B  397F               andlw 7Fh
  6516  080C  008A               movwf	pclath
  6517  080D  0804               	movf	fsr,w
  6518  080E  0A84               incf fsr
  6519  080F  1903               skipnz
  6520  0810  0AFF               incf btemp+1
  6521  0811  0082               	movwf pc
  6522  0812                     __stringbase:
  6523                           psect	stringtext,class=STRCODE,delta=2,reloc=256
  6524                           global __pstringtext
  6525  0000                     __pstringtext:
  6526                           	global	btemp
  6527  007E                     	btemp set 07Eh
  6528                           
  6529                           	DABS	1,126,2	;btemp
  6530                           	global	wtemp0
  6531  007E                     	wtemp0 set btemp


HI-TECH Software PICC Macro Assembler V9.82 build 9453 
Symbol Table                                                                                   Mon Dec 19 11:41:51 2011

             ?_i2c_WaitForSCL 0070                             pc 0002                            _RD 0C60  
                          _WR 0C61                            fsr 0004                  ___ftadd@exp1 00B2  
                ___ftadd@exp2 00B1              i2c_SendByte@byte 0022                  ___ftadd@sign 00B0  
                         l605 0E29                           l613 0FA6                           l606 0E2F  
                         l614 0F7C                           l630 0ED0                           l615 0F97  
                         l631 0ED2                           l616 0FAE                           l617 0F9E  
                         l634 0E15                           l618 0F9D                           l635 0E14  
                         l619 0FAE                           l636 0E17                           l580 07FD  
                         l573 0DEA                           l581 07DC                           l582 07DF  
                         l590 0EAA                           l583 07F0                           l591 0EAE  
                         l576 0DD6                           l584 07FF                           l579 07B1  
                         l587 0DC6                           _GIE 005F                           _RA2 002A  
              ?_i2c_PutString 0025                           _RB1 0031                           _RB4 0034  
                         _RC3 003B                           _RB5 0035                           _RC4 003C  
                         fsr0 0004                           indf 0000                 ??_i2c_Restart 0075  
               ??_i2c_PutByte 0075                  setup_adc@tmp 0022                          l1221 0F1F  
                        l1224 0035                          l1240 00F9                          l1225 003A  
                        l1218 0E69                          l1226 004F                          l1227 0060  
                        l1228 006C                          l1237 00DD                          l1238 00DC  
                        l1239 00E4                          l3200 05AE                          l3201 05C5  
                        l3210 0667                          l3202 05CA                          l3211 0668  
                        l3203 05DF                          l3212 067A                          l3204 05F6  
                        l3213 069F                          l3214 068B                          l3150 017D  
                        l3142 014C                          l2510 03F5                          l3215 0698  
                        l3207 0630                          l3151 01CD                          l3223 0E8A  
                        l2511 03F6                          l3216 068C                          l3208 06B8  
                        l3160 020C                          l3152 0195                          l3144 0143  
                        l2512 03F6                          l3217 069E                          l3209 067B  
                        l3161 01D4                          l3145 0290                          l3321 0E4A  
                        l2505 029D                          l3218 06AF                          l3170 026B  
                        l3154 01B2                          l3146 0165                          l3234 0F30  
                        l2506 02C0                          l3163 01F1                          l3155 01B3  
                        l3235 0F4B                          l2515 0EF8                          l2507 02D1  
                        l3164 01F2                          l3156 01C5                          l3148 0164  
                        l2508 0314                          l3261 0DB6                          l3165 0204  
                        l3157 01B4                          l3149 0175                          l2509 03F4  
                        l3430 06CF                          l3262 0DB7                          l3166 01F3  
                        l3158 01CC                          l3167 020B                          l3159 020C  
                        l3440 070E                          l3432 06C7                          l6000 0E0B  
                        l3088 0F7A                          l3168 0223                          l3441 0703  
                        l3433 0735                          l3265 0762                          l3089 0F7A  
                        l3169 023C                          l3442 0712                          l3434 06DD  
                        l5050 07A0                          l3266 078C                          l6002 0E11  
                        l6010 00C6                          l3443 071C                          l3435 06D0  
                        l3267 07A3                          l3444 0735                          l3436 06E4  
                        l5052 07A2                          l6004 0E13                          l6012 00DA  
                        l6020 0F4C                          l3196 0540                          l6100 053F  
                        l3437 06FB                          l3197 0612                          l3438 06E5  
                        l5310 0762                          l6006 0E15                          l6014 00E4  
                        l6022 0F63                          l6030 0130                          l6110 0586  
                        l3198 0559                          l6102 0540                          l3439 0702  
                        l3199 0599                          l1863 0524                          l5320 079E  
                        l5312 0766                          l6008 0E17                          l6016 00F2  
                        l6024 0F79                          l6040 0152                          l6032 0136  
                        l6120 0599                          l6112 0587                          l6104 0551  
                        l6200 03F9                          l5250 062F                          l5322 07A0  
                        l5314 078C                          l5306 0736                          l6018 00F9  
                        l6050 017A                          l6042 0158                          l6034 0143  
                        l6026 010C                          l6130 05C5                          l6122 059D  
                        l6114 0588                          l6106 0558                          l6210 04A6  
                        l6202 0407                          l1866 00C2                          l5260 0650  
                        l5252 0630                          l5324 07A3                          l5316 078E  
                        l5308 073C                          l6060 01A9                          l6052 017F  
                        l6044 0165                          l6036 014B                          l6028 012C  
                        l6140 05EF                          l6132 05CA                          l6124 05AE  
                        l6116 058E                          l6108 0559                          l6220 04F6  
                        l6212 04E1                          l6204 042E                          l6300 0094  
                        l5270 0668                          l5262 0652                          l5254 0642  
                        l5246 0613                          l5318 0790                          l6070 01E2  
                        l6062 01B4                          l6054 0185                          l6046 016C  
                        l6038 014C                          l6142 05F6                          l6134 05CE  
                        l6126 05B6                          l6118 0594                          l6150 0F20  
                        l6230 050D                          l6222 04F7                          l6214 04E7  
                        l6206 0454                          l6310 00A2                          l6302 0098  
                        l5280 0698                          l5264 0656                          l5272 067B  
                        l5256 0643                          l5248 0626                          l6080 0223  
                        l6072 01E8                          l6064 01C5                          l6056 0195  
                        l6048 0172                          l6144 0612                          l6136 05DF  
                        l6128 05BE                          l6152 0F27                          l6160 0E4A  
                        l6240 051E                          l6232 0513                          l6224 04FA  
                        l6216 04ED                          l6208 047A                          l6320 00B0  
                        l6312 00A6                          l6304 0099                          l5274 0681  
                        l5282 069F                          l5266 065D                          l5258 0649  
                        l5370 0DC7                          l6090 0265                          l6082 0229  
                        l6074 01F3                          l6058 01A3                          l6066 01CD  
                        l6138 05E7                          l6146 0E6D                          l6154 0F30  
                        l6170 07D8                          l6162 07A7                          l6242 0522  
                        l6234 0517                          l6226 0502                          l6218 04F3  
                        l6250 0E26                          l6322 00BD                          l6314 00A7  
                        l6306 009A                          l6330 0EF3                          l5284 06A3  
                        l5276 068A                          l5268 0666                          l6092 026B  
                        l6084 023C                          l6076 0204                          l6068 01D4  
                        l6148 0E8A                          l6156 0F4B                          l6180 07F8  
                        l6172 07E3                          l6164 07AB                          l6236 0519  
                        l6228 050A                          l6244 0DBB                          l6252 0E28  
                        l6260 0F7C                          l6316 00AB                          l6308 009E  
                        l6324 0ED6                          l6340 02AF                          l6332 0291  
                        l5286 06AF                          l5278 068C                          l6094 0290  
                        l6086 0251                          l6078 0210                          l6158 0E30  
                        l6174 07ED                          l6166 07B0                          l6182 07FD  
                        l6190 0E9D                          l6238 051A                          l6246 0DC6  
                        l6254 0E29                          l6270 0F9E                          l6262 0F95  
                        l6318 00AC                          l6326 0EDB                          l6350 033A  
                        l6342 02C0                          l6334 0296                          l5288 06B8  
                        l5368 0DD7                          l6088 0255                          l6096 0525  
                        l6184 07FF                          l6176 07EF                          l6168 07B4  
                        l6192 0EA7                          l6256 0E2F                          l6248 0E1B  
                        l6272 0FA4                          l6264 0F96                          l6280 0ECD  
                        l6328 0EE4                          l6352 034E                          l6344 02D1  
                        l6336 029D                          l6098 0538                          l6178 07F2  
                        l6194 0EA9                          l6186 0E8B                          l6266 0F97  
                        l6258 0F7B                          l6282 0ECF                          l6274 0EB2  
                        l6290 0078                          l6354 039C                          l6346 0306  
                        l6338 02AB                          l6196 0EAA                          l6188 0E95  
                        l6268 0F9C                          l6284 0ED0                          l6276 0EB7  
                        l6292 007D                          l6348 030C                          l5830 0E62  
                        l6198 0EAE                          l6286 0ED2                          l6278 0EC3  
                        l6294 0086                          l5840 0F1F                          l5832 0E69  
                        l6296 008C                          l6288 0070                          l5834 0EF9  
                        l5826 0E4B                          l5850 0035                          l5842 0018  
                        l6298 0090                          l5836 0F05                          l5828 0E57  
                        l5860 005B                          l5852 003A                          l5844 001B  
                        l5838 0F18                          l5862 0060                          l5854 003E  
                        l5846 002A                          l5870 06CE                          l5950 0DB6  
                        l5856 004A                          l5848 0030                          l5880 06F3  
                        l5872 06D0                          l5864 06B9                          l5952 0DB7  
                        l5858 004F                          l5890 0730                          l5882 0703  
                        l5874 06DD                          l5866 06BF                          l5946 0DAA  
          i2c_PutString@error 0028                          l5892 0734                          l5884 070E  
                        l5876 06E5                          l5868 06C7                          l5948 0DB3  
                        l5886 0716                          l5878 06E9                          l5888 071E  
                        l5996 0E01                          l5998 0E07                          _T0IE 005D  
                        _T0IF 005A                          u3100 069D                          u3020 0626  
                        u3101 069C                          u3021 0625                          u3110 06A3  
                        u3030 063B                          u3040 0656                          u3041 0655  
                        u4010 06E3                          u3050 065D                          u4011 06E2  
                        u3051 065C                          u3035 0637                          u3140 073C  
                        u4005 06D5                          u3141 073B                          u4030 0701  
                        u3070 0679                          u4031 0700                          u3071 0678  
                        u3151 0754                          u3080 0681                          u3160 0766  
                        u3152 0755                          u4025 06F4                          u3081 0680  
                        u3065 0669                          u3161 0765                          u3153 075A  
                        u4050 0712                          u3154 075B                          u4051 0711  
                        u3171 077E                          u4060 0716                          u3180 079E  
                        u3172 077F                          u4300 0130                          u4061 0715  
                        u4045 0706                          u3181 079D                          u3173 0784  
                        u4070 0727                          u3174 0785                          u4310 0136  
                        u3095 068E                          u4311 0135                          _PIE1 008C  
                        u4080 0734                          u4400 01A9                          u4320 0142  
                        u3185 079A                          u4401 01A8                          u4321 0141  
                        u4250 0E07                          u4410 01B1                          u4330 0152  
                        u4075 0723                          u4251 0E06                          u4411 01B0  
                        u4180 0DB3                          u4260 0E11                          u4500 0210  
                        u4340 0158                          u4181 0DB2                          u4261 0E10  
                        u4501 020F                          u4341 0157                          u4510 0229  
                        u4430 01CB                          u4350 0164                          u4511 0228  
                        u4431 01CA                          u4351 0163                          u4280 00E3  
                        u4440 01D3                          u4360 0172                          u4281 00E2  
                        u4521 024A                          u4441 01D2                          u4425 01B5  
                        u4361 0171                          u4290 0F63                          u4530 0255  
                        u4522 0251                          u4370 017A                          u4275 00CF  
                        u4291 0F62                          u4531 0254                          u4371 0179  
                        u4460 01E8                          u4380 0194                          u4620 05C4  
                        u4540 0538                          u4461 01E7                          u4381 0193  
                        u4621 05C3                          u4605 05AF                          u4541 0537  
                        _INTE 005C                          u4470 01F0                          u4630 05CE  
                        u4550 0551                          u4710 07C6                          _INTF 0059  
                        u4471 01EF                          u4455 01D5                          u4631 05CD  
                        u4615 05B7                          u4551 0550                          u4711 07C2  
                        u4560 0569                          u4704 07BC                          u4800 0F94  
                        u4641 05D7                          u4705 07BA                          u4801 0F93  
                        u4490 020A                          u4642 05DE                          u4570 057B  
                        u4810 0F9B                          u4491 0209                          u4395 0196  
                        u4580 059D                          u4740 07D8                          u4724 07C9  
                        u4820 0FAD                          u4485 01F4                          u4581 059C  
                        u4565 0565                          u4741 07D7                          u4821 0FAC  
                        u4670 05F5                          u4750 07ED                          u4734 07D1  
                        u4830 0ECD                          u4671 05F4                          u4655 05E0  
                        u4591 05A6                          u4575 0577                          u4751 07EC  
                        u4735 07CF                          u4831 0ECC                          u3960 0030  
                        u4592 05AD                          u4680 0F27                          u4760 07FC  
                        u4840 02AF                          u3945 0F0C                          u3961 002F  
                        u4665 05E8                          u4681 0F26                          u4761 07FB  
                        _PIR1 000C                          u3970 003E                          u4690 07AF  
                        u4770 0EA7                          u4850 030C                          u3971 003D  
                        u3955 001F                          u4691 07AE                          u4771 0EA6  
                        u4851 030B                          u3980 06BF                          u4860 039C  
                        u4861 039B                          u3990 06C6                          u4790 0E26  
                        u3991 06C5                          u4791 0E25                          u4785 04C0  
                        u4877 0E09                          _TMR0 0001                          _WREN 0C62  
                        _fabs 0F4C                          _main 0291                  ___ftpack@arg 0020  
                ___ftpack@exp 0023                          btemp 007E                ??_i2c_SendByte 0021  
                        start 0012                  i2c_Open@mode 0026                  ___ftmul@cntr 004C  
                ___ftmul@sign 004D                  ___fttol@exp1 0035                  ___fttol@lval 0031  
                       ?_fabs 003A                         ?_main 0070           i2c_PutString@length 0027  
                       _EEADR 010D               __end_of___ftadd 0291                         _CARRY 0018  
             __end_of___ftneg 0DB8               __end_of___ftmul 0613               __end_of___fttol 06B9  
                       _TRISA 0085                         _TRISB 0086                         _TRISC 0087  
               ___awtoft@sign 0039                         fabs@d 003A                         _t_osc 00A3  
               ___ftpack@sign 0024                         fpbase 0105                         pclath 000A  
         __end_of_i2c_Restart 0DD7                         status 0003           _i2c_ReadAcknowledge 0E8B  
         __end_of_i2c_PutByte 0E30                         wtemp0 007E                  _adc_throttle 005B  
               i2c_SendByte@i 0023                  __end_of_fabs 0F7B                  __end_of_main 03F9  
            __end_of_i2c_Open 0ED3              __end_of_i2c_Stop 0DEB               ??_i2c_PutString 0075  
        ?_i2c_ReadAcknowledge 0070                        ??_fabs 0075                        ??_main 00B3  
               ___fttol@sign1 0030        i2c_SendAddress@address 0025           result_right@readval 0024  
                      _ADCON0 001F                        _ADCON1 009F                        _ADRESH 001E  
                      _ADRESL 009E                        _EEDATA 010C                        _EECON1 018C  
                      _EECON2 018D              __end_of___awtoft 0F4C              __end_of___ftpack 0736  
            __end_of___lbtoft 0E8B                 ?_init_dig_pot 0070                        i1l2500 0FD9  
                      i1l2501 0FF5                        i1l2502 0FF5                        i1l5150 0FB9  
                      i1l5160 0FDA                        i1l5152 0FC9                        i1l5144 0FAF  
                      i1l2497 0FDC                        i1l5170 0FF3                        i1l2498 0FCB  
                      i1l5154 0FCB                        i1l5146 0FB3                        i1l5162 0FDC  
                      i1l2499 0FDA                        i1l5164 0FE0                        i1l5156 0FD5  
                      i1l5148 0FB7                        i1l5166 0FE4                        i1l5158 0FD6  
                      i1l5168 0FE6                        _INTEDG 040E                        _INTCON 000B  
                      u280_20 0FD5                        u280_21 0FD4                        u280_25 0FD1  
                      u281_20 0FE0                        u281_21 0FDF                        u282_20 0FE4  
                      u282_21 0FE3              __end_of___lwtoft 0E4B                        u277_20 0FB3  
                      u277_21 0FB2                        u278_20 0FB7                        u278_21 0FB6  
                      u279_20 0FC9                        u279_21 0FC8                        u279_25 0FC5  
                      _TRISC3 043B                        _TRISC4 043C                        _SSPCON 0014  
      i2c_ReadAcknowledge@ack 0022                fp__result_left 0106                        ___ftge 0736  
                   ??___ftadd 0054                     ??___ftneg 0075                     ??___ftmul 0044  
                   ??___fttol 002C              __end_of_read_adc 00FA              __end_of_init_pic 0525  
            __end_of_int_call 1000         ??_i2c_ReadAcknowledge 0021                   read_adc@tmp 002D  
                      clrloop 0DA3         ___ftmul@f3_as_product 0049                        fptable 0100  
                      fptotal 0004          __end_of_i2c_SendByte 0800                  ?_result_left 0020  
                      saved_w 007E                   _i2c_Restart 0DC7                   _i2c_PutByte 0E18  
              ??_init_dig_pot 0029                    ___ftadd@f1 004E                    ___ftadd@f2 0051  
                  ___ftge@ff1 0028                    ___ftge@ff2 002B              ??_i2c_WaitForSCL 0020  
          init_dig_pot@adress 0038                    ___ftneg@f1 0020                    ___awtoft@c 0034  
                  ___lbtoft@c 003D                    ___ftmul@f1 003E                    ___ftmul@f2 0041  
                  ___fttol@f1 0028                __pcstackCOMMON 0070                    ___lwtoft@c 0036  
             send_pot_val@len 002A            send_pot_val@adress 002C               send_pot_val@msg 0029  
          result_left@readval 0024      __size_of_i2c_SendAddress 000F                    __pbssBANK0 0058  
                  __pbssBANK1 00A8                     ?_i2c_Open 0026                     ?_i2c_Stop 0070  
                  __pnvCOMMON 0075                    __pmaintext 0291                       ?___ftge 0028  
                  __pintentry 0004                    __ptext1000 0015                    __ptext1001 0E4B  
                  __ptext1002 0EF9                    __ptext1003 0FAF                     ?___awtoft 0034  
                   ?___ftpack 0020                     ?___lbtoft 0036                     ?___lwtoft 0036  
               ?_send_pot_val 0029                       _GO_DONE 00FA            __size_of_setup_adc 0058  
                  ??_i2c_Open 0027                    ??_i2c_Stop 0075               fp__result_right 0109  
                   ?_read_adc 0026                     ?_init_pic 0070                     ?_int_call 0070  
             __size_of___ftge 006E                       ___ftadd 010C               init_dig_pot@len 0039  
                     ___ftneg 0DAA               init_dig_pot@msg 002A                       ___ftmul 0525  
                     ___fttol 0613          __end_of_init_dig_pot 00C3         __size_of_i2c_SendByte 005C  
                  ??___awtoft 0037                    ??___ftpack 0025                    ??___lbtoft 0039  
              ??_send_pot_val 002B                    ??___lwtoft 0039            _max_centralina_pot 0078  
                  _duty_value 0075                       _pot_car 0067                       _pot_plc 0063  
        __size_of_result_left 0027          end_of_initialization 0DFD                    ??_read_adc 0028  
                  ??_init_pic 004E                    ??_int_call 0070            setup_adc@cfg_mask1 0024  
                  _t_osc_pres 006C             ??_i2c_SendAddress 0075                 ?_result_right 0020  
                _i2c_SendByte 07A4             __end_of_setup_adc 006D                  __pstringtext 0000  
                  _result_adc 0066               read_adc@channel 002A                    _pot_values 00A8  
       __end_of_i2c_PutString 0FAF                   _b_adc2timer 0077               i2c_Open@address 0028  
             read_adc@readval 002B                  ?_i2c_Restart 0070                  ?_i2c_PutByte 0070  
                  _pwm_period 006A              i2c_PutString@str 0025                ??_result_right 0022  
                 ___ftmul@exp 0048   __end_of_i2c_ReadAcknowledge 0EAF               _pot_ref_min_car 0064  
              __end_of___ftge 07A4                   _adc_old_pos 0060                   _adc_new_pos 005F  
                 _adc_pos_dif 0061           start_initialization 0DEB             __size_of_i2c_Open 0024  
           __size_of_i2c_Stop 0014          __end_of_send_pot_val 0EF9         __size_of_init_dig_pot 0056  
                    ??___ftge 002E             __size_of___awtoft 002C             __size_of___ftpack 007D  
           __size_of___lbtoft 0021                   __pbssCOMMON 0078             __size_of___lwtoft 001B  
               __pcstackBANK0 0020                 __pcstackBANK1 00B0                  _init_dig_pot 006D  
                _max_pwm_duty 00A6                     __pnvBANK0 0068                     __pnvBANK1 00A0  
           __size_of_read_adc 0037             __size_of_init_pic 012C             __size_of_int_call 0051  
                   __pfunctab 0100                      ?___ftadd 004E                     __ptext980 0F7B  
                   __ptext981 0E18                     __ptext990 010C                     __ptext982 0DB8  
                   __ptext991 0F4C                     __ptext983 03F9                     __ptext992 00C3  
                   __ptext984 0E8B                     __ptext993 0E01                     __ptext985 07A4  
                   __ptext977 0ED3                     __ptext994 0DC7                     __ptext986 0E30  
                   __ptext978 006D                     __ptext995 0DD7                     __ptext987 0F20  
                   __ptext979 0EAF                     __ptext996 0736                     __ptext988 0E6A  
                   __ptext997 0DAA                     __ptext989 0525                     __ptext998 0613  
                   __ptext999 06B9                      ?___ftneg 0020                      ?___ftmul 003E  
                    ?___fttol 0028                   _m_adc2timer 00A0       __size_of_i2c_WaitForSCL 0017  
             i2c_PutByte@data 0024                     __pstrings 0800          __end_of_result_right 0E6A  
             _i2c_SendAddress 0DB8                  _min_pwm_duty 0068          __size_of_i2c_Restart 0010  
        __size_of_i2c_PutByte 0018             interrupt_function 0004                     _r_pot_adc 0058  
                   _setup_adc 0015                   __stringbase 0812                 ??_result_left 0022  
       __size_of_send_pot_val 0026                      _i2c_Open 0EAF                      _i2c_Stop 0DD7  
                 _counter_pwm 005D                    ?_setup_adc 0070              __size_of___ftadd 0185  
            __size_of___ftneg 000E              __size_of___ftmul 00EE              __size_of___fttol 00A6  
                    ___awtoft 0F20                      ___ftpack 06B9                      ___lbtoft 0E6A  
     __end_of_i2c_SendAddress 0DC7                      ___lwtoft 0E30                  _send_pot_val 0ED3  
              _pot_servo_ctrl 0065           __end_of_result_left 0F20                      _man_auto 0062  
               __size_of_fabs 002F                      _read_adc 00C3                 __size_of_main 0168  
                    _init_pic 03F9                      _int_call 0FAF        __size_of_i2c_PutString 0034  
                    clear_ram 0DA2                _i2c_WaitForSCL 0E01         __size_of_result_right 001F  
__size_of_i2c_ReadAcknowledge 0024                      intlevel1 0100                     stringcode 080A  
                _result_right 0E4B        __end_of_i2c_WaitForSCL 0E18             i2c_SendAddress@rw 0024  
                 ??_setup_adc 0020              ?_i2c_SendAddress 0024                    _OPTION_REG 0081  
               _i2c_PutString 0F7B                   _result_left 0EF9                      stringtab 0800  
               ?_i2c_SendByte 0070  
